(dp0
S'/home/tarun/Downloads/garbage_645/GARBAGE/data/Images/449.jpg'
p1
(lp2
I169
aI119
aI293
aI157
asS'/home/tarun/Downloads/garbage_645/GARBAGE/data/Images/1318.jpg'
p3
(lp4
I138
aI109
aI324
aI65
asS'/home/tarun/Downloads/garbage_645/GARBAGE/data/Images/1234.jpg'
p5
(lp6
I55
aI213
aI299
aI114
asS'/home/tarun/Downloads/garbage_645/GARBAGE/data/Images/1266.jpg'
p7
(lp8
I49
aI211
aI184
aI100
asS'/home/tarun/Downloads/garbage_645/GARBAGE/data/Images/206.jpg'
p9
(lp10
I86
aI139
aI88
aI66
asS'/home/tarun/Downloads/garbage_645/GARBAGE/data/Images/474.jpg'
p11
(lp12
I195
aI177
aI271
aI167
asS'/home/tarun/Downloads/garbage_645/GARBAGE/data/Images/119.jpg'
p13
(lp14
I38
aI191
aI174
aI97
asS'/home/tarun/Downloads/garbage_645/GARBAGE/data/Images/2212.jpg'
p15
(lp16
I63
aI149
aI105
aI109
asS'/home/tarun/Downloads/garbage_645/GARBAGE/data/Images/1.jpg'
p17
(lp18
I66
aI292
aI283
aI130
asS'/home/tarun/Downloads/garbage_645/GARBAGE/data/Images/2149.jpg'
p19
(lp20
I147
aI42
aI250
aI167
asS'/home/tarun/Downloads/garbage_645/GARBAGE/data/Images/686.jpg'
p21
(lp22
I76
aI163
aI164
aI106
asS'/home/tarun/Downloads/garbage_645/GARBAGE/data/Images/613.jpg'
p23
(lp24
I125
aI212
aI119
aI70
asS'/home/tarun/Downloads/garbage_645/GARBAGE/data/Images/34.jpg'
p25
(lp26
I62
aI133
aI128
aI115
asS'/home/tarun/Downloads/garbage_645/GARBAGE/data/Images/868.jpg'
p27
(lp28
I47
aI131
aI185
aI102
asS'/home/tarun/Downloads/garbage_645/GARBAGE/data/Images/2925.jpg'
p29
(lp30
I84
aI184
aI346
aI158
asS'/home/tarun/Downloads/garbage_645/GARBAGE/data/Images/2211.jpg'
p31
(lp32
I153
aI394
aI174
aI88
asS'/home/tarun/Downloads/garbage_645/GARBAGE/data/Images/2266.jpg'
p33
(lp34
I55
aI111
aI140
aI102
asS'/home/tarun/Downloads/garbage_645/GARBAGE/data/Images/2199.jpg'
p35
(lp36
I122
aI141
aI372
aI87
asS'/home/tarun/Downloads/garbage_645/GARBAGE/data/Images/2378.jpg'
p37
(lp38
I23
aI118
aI607
aI231
asS'/home/tarun/Downloads/garbage_645/GARBAGE/data/Images/693.jpg'
p39
(lp40
I214
aI228
aI155
aI54
asS'/home/tarun/Downloads/garbage_645/GARBAGE/data/Images/1239.jpg'
p41
(lp42
I96
aI154
aI267
aI106
asS'/home/tarun/Downloads/garbage_645/GARBAGE/data/Images/1802.jpg'
p43
(lp44
I40
aI244
aI244
aI192
asS'/home/tarun/Downloads/garbage_645/GARBAGE/data/Images/2286.jpg'
p45
(lp46
I19
aI47
aI204
aI177
asS'/home/tarun/Downloads/garbage_645/GARBAGE/data/Images/811.jpg'
p47
(lp48
I205
aI148
aI135
aI56
asS'/home/tarun/Downloads/garbage_645/GARBAGE/data/Images/1010.jpg'
p49
(lp50
I108
aI193
aI171
aI104
asS'/home/tarun/Downloads/garbage_645/GARBAGE/data/Images/439.jpg'
p51
(lp52
I22
aI133
aI231
aI179
asS'/home/tarun/Downloads/garbage_645/GARBAGE/data/Images/1740.jpg'
p53
(lp54
I50
aI150
aI117
aI91
asS'/home/tarun/Downloads/garbage_645/GARBAGE/data/Images/1196.jpg'
p55
(lp56
I251
aI169
aI217
aI119
asS'/home/tarun/Downloads/garbage_645/GARBAGE/data/Images/184.jpg'
p57
(lp58
I25
aI186
aI240
aI112
asS'/home/tarun/Downloads/garbage_645/GARBAGE/data/Images/2024.jpg'
p59
(lp60
I41
aI130
aI151
aI90
asS'/home/tarun/Downloads/garbage_645/GARBAGE/data/Images/2457.jpg'
p61
(lp62
I52
aI144
aI241
aI153
asS'/home/tarun/Downloads/garbage_645/GARBAGE/data/Images/738.jpg'
p63
(lp64
I140
aI180
aI392
aI112
asS'/home/tarun/Downloads/garbage_645/GARBAGE/data/Images/2490.jpg'
p65
(lp66
I23
aI131
aI114
aI69
asS'/home/tarun/Downloads/garbage_645/GARBAGE/data/Images/2386.jpg'
p67
(lp68
I97
aI127
aI253
aI111
asS'/home/tarun/Downloads/garbage_645/GARBAGE/data/Images/147.jpg'
p69
(lp70
I63
aI193
aI83
aI91
asS'/home/tarun/Downloads/garbage_645/GARBAGE/data/Images/417.jpg'
p71
(lp72
I22
aI185
aI212
aI146
asS'/home/tarun/Downloads/garbage_645/GARBAGE/data/Images/2053.jpg'
p73
(lp74
I200
aI135
aI239
aI77
asS'/home/tarun/Downloads/garbage_645/GARBAGE/data/Images/2835.jpg'
p75
(lp76
I163
aI93
aI198
aI103
asS'/home/tarun/Downloads/garbage_645/GARBAGE/data/Images/2306.jpg'
p77
(lp78
I205
aI169
aI231
aI105
asS'/home/tarun/Downloads/garbage_645/GARBAGE/data/Images/66.jpg'
p79
(lp80
I47
aI101
aI408
aI185
asS'/home/tarun/Downloads/garbage_645/GARBAGE/data/Images/1260.jpg'
p81
(lp82
I60
aI119
aI186
aI197
asS'/home/tarun/Downloads/garbage_645/GARBAGE/data/Images/2632.jpg'
p83
(lp84
I32
aI264
aI208
aI169
asS'/home/tarun/Downloads/garbage_645/GARBAGE/data/Images/70.jpg'
p85
(lp86
I261
aI149
aI232
aI112
asS'/home/tarun/Downloads/garbage_645/GARBAGE/data/Images/2681.jpg'
p87
(lp88
I69
aI65
aI190
aI60
asS'/home/tarun/Downloads/garbage_645/GARBAGE/data/Images/2373.jpg'
p89
(lp90
I56
aI163
aI152
aI121
asS'/home/tarun/Downloads/garbage_645/GARBAGE/data/Images/665.jpg'
p91
(lp92
I141
aI134
aI171
aI107
asS'/home/tarun/Downloads/garbage_645/GARBAGE/data/Images/145.jpg'
p93
(lp94
I195
aI89
aI148
aI100
asS'/home/tarun/Downloads/garbage_645/GARBAGE/data/Images/355.jpg'
p95
(lp96
I11
aI133
aI156
aI94
asS'/home/tarun/Downloads/garbage_645/GARBAGE/data/Images/549.jpg'
p97
(lp98
I206
aI76
aI253
aI148
asS'/home/tarun/Downloads/garbage_645/GARBAGE/data/Images/2282.jpg'
p99
(lp100
I19
aI86
aI178
aI158
asS'/home/tarun/Downloads/garbage_645/GARBAGE/data/Images/2209.jpg'
p101
(lp102
I28
aI78
aI161
aI130
asS'/home/tarun/Downloads/garbage_645/GARBAGE/data/Images/48.jpg'
p103
(lp104
I53
aI56
aI414
aI198
asS'/home/tarun/Downloads/garbage_645/GARBAGE/data/Images/2527.jpg'
p105
(lp106
I131
aI150
aI207
aI113
asS'/home/tarun/Downloads/garbage_645/GARBAGE/data/Images/2050.jpg'
p107
(lp108
I22
aI161
aI417
aI120
asS'/home/tarun/Downloads/garbage_645/GARBAGE/data/Images/2388.jpg'
p109
(lp110
I101
aI149
aI337
aI123
asS'/home/tarun/Downloads/garbage_645/GARBAGE/data/Images/2281.jpg'
p111
(lp112
I48
aI204
aI376
aI326
asS'/home/tarun/Downloads/garbage_645/GARBAGE/data/Images/641.jpg'
p113
(lp114
I86
aI84
aI426
aI218
asS'/home/tarun/Downloads/garbage_645/GARBAGE/data/Images/2297.jpg'
p115
(lp116
I11
aI76
aI186
aI107
asS'/home/tarun/Downloads/garbage_645/GARBAGE/data/Images/1033.jpg'
p117
(lp118
I114
aI162
aI403
aI75
asS'/home/tarun/Downloads/garbage_645/GARBAGE/data/Images/445.jpg'
p119
(lp120
I58
aI148
aI171
aI74
asS'/home/tarun/Downloads/garbage_645/GARBAGE/data/Images/275.jpg'
p121
(lp122
I33
aI124
aI134
aI111
asS'/home/tarun/Downloads/garbage_645/GARBAGE/data/Images/1804.jpg'
p123
(lp124
I169
aI243
aI182
aI207
asS'/home/tarun/Downloads/garbage_645/GARBAGE/data/Images/1835.jpg'
p125
(lp126
I131
aI120
aI213
aI99
asS'/home/tarun/Downloads/garbage_645/GARBAGE/data/Images/1790.jpg'
p127
(lp128
I3
aI60
aI548
aI151
asS'/home/tarun/Downloads/garbage_645/GARBAGE/data/Images/2859.jpg'
p129
(lp130
I59
aI90
aI304
aI137
asS'/home/tarun/Downloads/garbage_645/GARBAGE/data/Images/156.jpg'
p131
(lp132
I0
aI124
aI151
aI84
asS'/home/tarun/Downloads/garbage_645/GARBAGE/data/Images/323.jpg'
p133
(lp134
I214
aI73
aI284
aI219
asS'/home/tarun/Downloads/garbage_645/GARBAGE/data/Images/670.jpg'
p135
(lp136
I51
aI158
aI203
aI79
asS'/home/tarun/Downloads/garbage_645/GARBAGE/data/Images/597.jpg'
p137
(lp138
I91
aI102
aI338
aI124
asS'/home/tarun/Downloads/garbage_645/GARBAGE/data/Images/148.jpg'
p139
(lp140
I136
aI79
aI316
aI174
asS'/home/tarun/Downloads/garbage_645/GARBAGE/data/Images/1203.jpg'
p141
(lp142
I20
aI141
aI165
aI66
asS'/home/tarun/Downloads/garbage_645/GARBAGE/data/Images/2576.jpg'
p143
(lp144
I4
aI145
aI636
aI113
asS'/home/tarun/Downloads/garbage_645/GARBAGE/data/Images/2036.jpg'
p145
(lp146
I39
aI263
aI223
aI138
asS'/home/tarun/Downloads/garbage_645/GARBAGE/data/Images/2594.jpg'
p147
(lp148
I51
aI153
aI178
aI103
asS'/home/tarun/Downloads/garbage_645/GARBAGE/data/Images/1975.jpg'
p149
(lp150
I82
aI85
aI430
aI144
asS'/home/tarun/Downloads/garbage_645/GARBAGE/data/Images/532.jpg'
p151
(lp152
I29
aI259
aI770
aI161
asS'/home/tarun/Downloads/garbage_645/GARBAGE/data/Images/646.jpg'
p153
(lp154
I169
aI163
aI167
aI55
asS'/home/tarun/Downloads/garbage_645/GARBAGE/data/Images/2955.jpg'
p155
(lp156
I157
aI129
aI375
aI109
asS'/home/tarun/Downloads/garbage_645/GARBAGE/data/Images/485.jpg'
p157
(lp158
I82
aI189
aI257
aI144
asS'/home/tarun/Downloads/garbage_645/GARBAGE/data/Images/1350.jpg'
p159
(lp160
I14
aI258
aI332
aI310
asS'/home/tarun/Downloads/garbage_645/GARBAGE/data/Images/1297.jpg'
p161
(lp162
I33
aI91
aI758
aI331
asS'/home/tarun/Downloads/garbage_645/GARBAGE/data/Images/1054.jpg'
p163
(lp164
I110
aI174
aI259
aI73
asS'/home/tarun/Downloads/garbage_645/GARBAGE/data/Images/509.jpg'
p165
(lp166
I272
aI188
aI196
aI161
asS'/home/tarun/Downloads/garbage_645/GARBAGE/data/Images/1307.jpg'
p167
(lp168
I40
aI84
aI462
aI226
asS'/home/tarun/Downloads/garbage_645/GARBAGE/data/Images/2599.jpg'
p169
(lp170
I255
aI125
aI198
aI227
asS'/home/tarun/Downloads/garbage_645/GARBAGE/data/Images/819.jpg'
p171
(lp172
I32
aI115
aI183
aI101
asS'/home/tarun/Downloads/garbage_645/GARBAGE/data/Images/299.jpg'
p173
(lp174
I136
aI134
aI378
aI107
asS'/home/tarun/Downloads/garbage_645/GARBAGE/data/Images/877.jpg'
p175
(lp176
I39
aI158
aI202
aI104
asS'/home/tarun/Downloads/garbage_645/GARBAGE/data/Images/122.jpg'
p177
(lp178
I2
aI295
aI248
aI167
asS'/home/tarun/Downloads/garbage_645/GARBAGE/data/Images/900.jpg'
p179
(lp180
I68
aI94
aI324
aI209
asS'/home/tarun/Downloads/garbage_645/GARBAGE/data/Images/462.jpg'
p181
(lp182
I115
aI212
aI99
aI75
asS'/home/tarun/Downloads/garbage_645/GARBAGE/data/Images/1634.jpg'
p183
(lp184
I92
aI29
aI180
aI164
asS'/home/tarun/Downloads/garbage_645/GARBAGE/data/Images/2069.jpg'
p185
(lp186
I153
aI112
aI205
aI219
asS'/home/tarun/Downloads/garbage_645/GARBAGE/data/Images/333.jpg'
p187
(lp188
I16
aI166
aI174
aI98
asS'/home/tarun/Downloads/garbage_645/GARBAGE/data/Images/192.jpg'
p189
(lp190
I76
aI186
aI245
aI95
asS'/home/tarun/Downloads/garbage_645/GARBAGE/data/Images/2046.jpg'
p191
(lp192
I9
aI172
aI249
aI117
asS'/home/tarun/Downloads/garbage_645/GARBAGE/data/Images/1070.jpg'
p193
(lp194
I243
aI100
aI320
aI226
asS'/home/tarun/Downloads/garbage_645/GARBAGE/data/Images/982.jpg'
p195
(lp196
I218
aI172
aI186
aI157
asS'/home/tarun/Downloads/garbage_645/GARBAGE/data/Images/1405.jpg'
p197
(lp198
I54
aI81
aI411
aI125
asS'/home/tarun/Downloads/garbage_645/GARBAGE/data/Images/1831.jpg'
p199
(lp200
I162
aI110
aI180
aI127
asS'/home/tarun/Downloads/garbage_645/GARBAGE/data/Images/2817.jpg'
p201
(lp202
I19
aI126
aI519
aI132
asS'/home/tarun/Downloads/garbage_645/GARBAGE/data/Images/577.jpg'
p203
(lp204
I14
aI180
aI80
aI152
asS'/home/tarun/Downloads/garbage_645/GARBAGE/data/Images/926.jpg'
p205
(lp206
I164
aI130
aI306
aI112
asS'/home/tarun/Downloads/garbage_645/GARBAGE/data/Images/1627.jpg'
p207
(lp208
I4
aI63
aI136
aI274
asS'/home/tarun/Downloads/garbage_645/GARBAGE/data/Images/1675.jpg'
p209
(lp210
I60
aI219
aI248
aI297
asS'/home/tarun/Downloads/garbage_645/GARBAGE/data/Images/1093.jpg'
p211
(lp212
I76
aI161
aI106
aI132
asS'/home/tarun/Downloads/garbage_645/GARBAGE/data/Images/2666.jpg'
p213
(lp214
I72
aI29
aI156
aI140
asS'/home/tarun/Downloads/garbage_645/GARBAGE/data/Images/723.jpg'
p215
(lp216
I29
aI224
aI288
aI254
asS'/home/tarun/Downloads/garbage_645/GARBAGE/data/Images/1076.jpg'
p217
(lp218
I193
aI82
aI190
aI195
asS'/home/tarun/Downloads/garbage_645/GARBAGE/data/Images/2255.jpg'
p219
(lp220
I27
aI38
aI422
aI273
asS'/home/tarun/Downloads/garbage_645/GARBAGE/data/Images/2805.jpg'
p221
(lp222
I40
aI224
aI293
aI169
asS'/home/tarun/Downloads/garbage_645/GARBAGE/data/Images/2463.jpg'
p223
(lp224
I93
aI195
aI87
aI58
asS'/home/tarun/Downloads/garbage_645/GARBAGE/data/Images/640.jpg'
p225
(lp226
I331
aI138
aI285
aI142
asS'/home/tarun/Downloads/garbage_645/GARBAGE/data/Images/636.jpg'
p227
(lp228
I94
aI193
aI126
aI98
asS'/home/tarun/Downloads/garbage_645/GARBAGE/data/Images/554.jpg'
p229
(lp230
I10
aI238
aI331
aI96
asS'/home/tarun/Downloads/garbage_645/GARBAGE/data/Images/363.jpg'
p231
(lp232
I22
aI150
aI224
aI322
asS'/home/tarun/Downloads/garbage_645/GARBAGE/data/Images/120.jpg'
p233
(lp234
I41
aI313
aI227
aI112
asS'/home/tarun/Downloads/garbage_645/GARBAGE/data/Images/862.jpg'
p235
(lp236
I91
aI133
aI164
aI50
asS'/home/tarun/Downloads/garbage_645/GARBAGE/data/Images/2544.jpg'
p237
(lp238
I145
aI233
aI603
aI256
asS'/home/tarun/Downloads/garbage_645/GARBAGE/data/Images/244.jpg'
p239
(lp240
I98
aI259
aI239
aI149
asS'/home/tarun/Downloads/garbage_645/GARBAGE/data/Images/2749.jpg'
p241
(lp242
I64
aI95
aI505
aI159
asS'/home/tarun/Downloads/garbage_645/GARBAGE/data/Images/1215.jpg'
p243
(lp244
I16
aI203
aI323
aI305
asS'/home/tarun/Downloads/garbage_645/GARBAGE/data/Images/814.jpg'
p245
(lp246
I58
aI184
aI136
aI96
asS'/home/tarun/Downloads/garbage_645/GARBAGE/data/Images/2274.jpg'
p247
(lp248
I53
aI167
aI119
aI129
asS'/home/tarun/Downloads/garbage_645/GARBAGE/data/Images/274.jpg'
p249
(lp250
I49
aI65
aI488
aI243
asS'/home/tarun/Downloads/garbage_645/GARBAGE/data/Images/505.jpg'
p251
(lp252
I66
aI165
aI421
aI107
asS'/home/tarun/Downloads/garbage_645/GARBAGE/data/Images/2365.jpg'
p253
(lp254
I154
aI186
aI114
aI84
asS'/home/tarun/Downloads/garbage_645/GARBAGE/data/Images/1280.jpg'
p255
(lp256
I201
aI154
aI268
aI68
asS'/home/tarun/Downloads/garbage_645/GARBAGE/data/Images/1066.jpg'
p257
(lp258
I91
aI170
aI117
aI57
asS'/home/tarun/Downloads/garbage_645/GARBAGE/data/Images/2156.jpg'
p259
(lp260
I80
aI203
aI127
aI88
asS'/home/tarun/Downloads/garbage_645/GARBAGE/data/Images/98.jpg'
p261
(lp262
I40
aI43
aI306
aI129
asS'/home/tarun/Downloads/garbage_645/GARBAGE/data/Images/2679.jpg'
p263
(lp264
I150
aI207
aI479
aI122
asS'/home/tarun/Downloads/garbage_645/GARBAGE/data/Images/546.jpg'
p265
(lp266
I3
aI40
aI248
aI93
asS'/home/tarun/Downloads/garbage_645/GARBAGE/data/Images/261.jpg'
p267
(lp268
I69
aI97
aI177
aI116
asS'/home/tarun/Downloads/garbage_645/GARBAGE/data/Images/2003.jpg'
p269
(lp270
I3
aI328
aI255
aI155
asS'/home/tarun/Downloads/garbage_645/GARBAGE/data/Images/1673.jpg'
p271
(lp272
I185
aI111
aI216
aI100
asS'/home/tarun/Downloads/garbage_645/GARBAGE/data/Images/2473.jpg'
p273
(lp274
I180
aI108
aI264
aI118
asS'/home/tarun/Downloads/garbage_645/GARBAGE/data/Images/706.jpg'
p275
(lp276
I104
aI184
aI133
aI84
asS'/home/tarun/Downloads/garbage_645/GARBAGE/data/Images/522.jpg'
p277
(lp278
I10
aI154
aI242
aI166
asS'/home/tarun/Downloads/garbage_645/GARBAGE/data/Images/1411.jpg'
p279
(lp280
I12
aI199
aI171
aI122
asS'/home/tarun/Downloads/garbage_645/GARBAGE/data/Images/869.jpg'
p281
(lp282
I181
aI189
aI202
aI68
asS'/home/tarun/Downloads/garbage_645/GARBAGE/data/Images/2052.jpg'
p283
(lp284
I72
aI150
aI187
aI188
asS'/home/tarun/Downloads/garbage_645/GARBAGE/data/Images/187.jpg'
p285
(lp286
I70
aI104
aI377
aI164
asS'/home/tarun/Downloads/garbage_645/GARBAGE/data/Images/1061.jpg'
p287
(lp288
I19
aI114
aI201
aI83
asS'/home/tarun/Downloads/garbage_645/GARBAGE/data/Images/1286.jpg'
p289
(lp290
I81
aI222
aI210
aI116
asS'/home/tarun/Downloads/garbage_645/GARBAGE/data/Images/694.jpg'
p291
(lp292
I89
aI132
aI116
aI126
asS'/home/tarun/Downloads/garbage_645/GARBAGE/data/Images/820.jpg'
p293
(lp294
I56
aI147
aI97
aI88
asS'/home/tarun/Downloads/garbage_645/GARBAGE/data/Images/2642.jpg'
p295
(lp296
I86
aI303
aI232
aI194
asS'/home/tarun/Downloads/garbage_645/GARBAGE/data/Images/933.jpg'
p297
(lp298
I51
aI92
aI417
aI191
asS'/home/tarun/Downloads/garbage_645/GARBAGE/data/Images/2883.jpg'
p299
(lp300
I5
aI4
aI559
aI234
asS'/home/tarun/Downloads/garbage_645/GARBAGE/data/Images/322.jpg'
p301
(lp302
I30
aI124
aI215
aI168
asS'/home/tarun/Downloads/garbage_645/GARBAGE/data/Images/2359.jpg'
p303
(lp304
I37
aI269
aI247
aI136
asS'/home/tarun/Downloads/garbage_645/GARBAGE/data/Images/1418.jpg'
p305
(lp306
I5
aI73
aI172
aI124
asS'/home/tarun/Downloads/garbage_645/GARBAGE/data/Images/2496.jpg'
p307
(lp308
I12
aI105
aI416
aI231
asS'/home/tarun/Downloads/garbage_645/GARBAGE/data/Images/385.jpg'
p309
(lp310
I109
aI83
aI223
aI159
asS'/home/tarun/Downloads/garbage_645/GARBAGE/data/Images/771.jpg'
p311
(lp312
I69
aI34
aI135
aI274
asS'/home/tarun/Downloads/garbage_645/GARBAGE/data/Images/2062.jpg'
p313
(lp314
I37
aI88
aI300
aI297
asS'/home/tarun/Downloads/garbage_645/GARBAGE/data/Images/981.jpg'
p315
(lp316
I74
aI89
aI466
aI158
asS'/home/tarun/Downloads/garbage_645/GARBAGE/data/Images/149.jpg'
p317
(lp318
I17
aI148
aI294
aI132
asS'/home/tarun/Downloads/garbage_645/GARBAGE/data/Images/2288.jpg'
p319
(lp320
I25
aI155
aI153
aI81
asS'/home/tarun/Downloads/garbage_645/GARBAGE/data/Images/902.jpg'
p321
(lp322
I46
aI120
aI548
aI119
asS'/home/tarun/Downloads/garbage_645/GARBAGE/data/Images/1769.jpg'
p323
(lp324
I209
aI139
aI148
aI97
asS'/home/tarun/Downloads/garbage_645/GARBAGE/data/Images/369.jpg'
p325
(lp326
I35
aI231
aI296
aI221
asS'/home/tarun/Downloads/garbage_645/GARBAGE/data/Images/2102.jpg'
p327
(lp328
I204
aI88
aI232
aI130
asS'/home/tarun/Downloads/garbage_645/GARBAGE/data/Images/2522.jpg'
p329
(lp330
I53
aI75
aI97
aI115
asS'/home/tarun/Downloads/garbage_645/GARBAGE/data/Images/427.jpg'
p331
(lp332
I76
aI200
aI227
aI141
asS'/home/tarun/Downloads/garbage_645/GARBAGE/data/Images/226.jpg'
p333
(lp334
I31
aI125
aI164
aI86
asS'/home/tarun/Downloads/garbage_645/GARBAGE/data/Images/2478.jpg'
p335
(lp336
I292
aI213
aI112
aI31
asS'/home/tarun/Downloads/garbage_645/GARBAGE/data/Images/328.jpg'
p337
(lp338
I12
aI165
aI335
aI190
asS'/home/tarun/Downloads/garbage_645/GARBAGE/data/Images/45.jpg'
p339
(lp340
I48
aI119
aI115
aI65
asS'/home/tarun/Downloads/garbage_645/GARBAGE/data/Images/2732.jpg'
p341
(lp342
I8
aI111
aI350
aI233
asS'/home/tarun/Downloads/garbage_645/GARBAGE/data/Images/837.jpg'
p343
(lp344
I58
aI299
aI246
aI203
asS'/home/tarun/Downloads/garbage_645/GARBAGE/data/Images/95.jpg'
p345
(lp346
I45
aI271
aI121
aI86
asS'/home/tarun/Downloads/garbage_645/GARBAGE/data/Images/2307.jpg'
p347
(lp348
I92
aI275
aI327
aI142
asS'/home/tarun/Downloads/garbage_645/GARBAGE/data/Images/2360.jpg'
p349
(lp350
I88
aI183
aI238
aI33
asS'/home/tarun/Downloads/garbage_645/GARBAGE/data/Images/2677.jpg'
p351
(lp352
I70
aI60
aI267
aI192
asS'/home/tarun/Downloads/garbage_645/GARBAGE/data/Images/905.jpg'
p353
(lp354
I16
aI22
aI405
aI206
asS'/home/tarun/Downloads/garbage_645/GARBAGE/data/Images/2374.jpg'
p355
(lp356
I108
aI134
aI251
aI190
asS'/home/tarun/Downloads/garbage_645/GARBAGE/data/Images/501.jpg'
p357
(lp358
I213
aI218
aI212
aI124
asS'/home/tarun/Downloads/garbage_645/GARBAGE/data/Images/1587.jpg'
p359
(lp360
I48
aI81
aI151
aI262
asS'/home/tarun/Downloads/garbage_645/GARBAGE/data/Images/2078.jpg'
p361
(lp362
I9
aI302
aI286
aI109
asS'/home/tarun/Downloads/garbage_645/GARBAGE/data/Images/229.jpg'
p363
(lp364
I97
aI151
aI153
aI67
asS'/home/tarun/Downloads/garbage_645/GARBAGE/data/Images/186.jpg'
p365
(lp366
I180
aI236
aI250
aI126
asS'/home/tarun/Downloads/garbage_645/GARBAGE/data/Images/424.jpg'
p367
(lp368
I157
aI151
aI183
aI100
asS'/home/tarun/Downloads/garbage_645/GARBAGE/data/Images/1288.jpg'
p369
(lp370
I98
aI283
aI195
aI153
asS'/home/tarun/Downloads/garbage_645/GARBAGE/data/Images/443.jpg'
p371
(lp372
I132
aI146
aI98
aI86
asS'/home/tarun/Downloads/garbage_645/GARBAGE/data/Images/1497.jpg'
p373
(lp374
I119
aI66
aI253
aI155
asS'/home/tarun/Downloads/garbage_645/GARBAGE/data/Images/1121.jpg'
p375
(lp376
I252
aI204
aI223
aI59
asS'/home/tarun/Downloads/garbage_645/GARBAGE/data/Images/2639.jpg'
p377
(lp378
I72
aI292
aI365
aI131
asS'/home/tarun/Downloads/garbage_645/GARBAGE/data/Images/1351.jpg'
p379
(lp380
I102
aI100
aI260
aI107
asS'/home/tarun/Downloads/garbage_645/GARBAGE/data/Images/2912.jpg'
p381
(lp382
I96
aI110
aI581
aI252
asS'/home/tarun/Downloads/garbage_645/GARBAGE/data/Images/1221.jpg'
p383
(lp384
I11
aI165
aI427
aI159
asS'/home/tarun/Downloads/garbage_645/GARBAGE/data/Images/241.jpg'
p385
(lp386
I61
aI85
aI173
aI83
asS'/home/tarun/Downloads/garbage_645/GARBAGE/data/Images/1230.jpg'
p387
(lp388
I9
aI176
aI237
aI176
asS'/home/tarun/Downloads/garbage_645/GARBAGE/data/Images/612.jpg'
p389
(lp390
I107
aI327
aI195
aI176
asS'/home/tarun/Downloads/garbage_645/GARBAGE/data/Images/2662.jpg'
p391
(lp392
I86
aI70
aI256
aI87
asS'/home/tarun/Downloads/garbage_645/GARBAGE/data/Images/2030.jpg'
p393
(lp394
I103
aI278
aI198
aI139
asS'/home/tarun/Downloads/garbage_645/GARBAGE/data/Images/292.jpg'
p395
(lp396
I139
aI132
aI341
aI140
asS'/home/tarun/Downloads/garbage_645/GARBAGE/data/Images/2903.jpg'
p397
(lp398
I28
aI117
aI207
aI142
asS'/home/tarun/Downloads/garbage_645/GARBAGE/data/Images/2843.jpg'
p399
(lp400
I99
aI131
aI345
aI158
asS'/home/tarun/Downloads/garbage_645/GARBAGE/data/Images/132.jpg'
p401
(lp402
I120
aI355
aI197
aI98
asS'/home/tarun/Downloads/garbage_645/GARBAGE/data/Images/2042.jpg'
p403
(lp404
I97
aI153
aI244
aI153
asS'/home/tarun/Downloads/garbage_645/GARBAGE/data/Images/2853.jpg'
p405
(lp406
I213
aI105
aI247
aI111
asS'/home/tarun/Downloads/garbage_645/GARBAGE/data/Images/763.jpg'
p407
(lp408
I213
aI147
aI128
aI92
asS'/home/tarun/Downloads/garbage_645/GARBAGE/data/Images/2932.jpg'
p409
(lp410
I53
aI219
aI307
aI102
asS'/home/tarun/Downloads/garbage_645/GARBAGE/data/Images/1741.jpg'
p411
(lp412
I126
aI119
aI299
aI168
asS'/home/tarun/Downloads/garbage_645/GARBAGE/data/Images/1899.jpg'
p413
(lp414
I168
aI105
aI265
aI225
asS'/home/tarun/Downloads/garbage_645/GARBAGE/data/Images/170.jpg'
p415
(lp416
I14
aI110
aI427
aI85
asS'/home/tarun/Downloads/garbage_645/GARBAGE/data/Images/1486.jpg'
p417
(lp418
I19
aI133
aI394
aI110
asS'/home/tarun/Downloads/garbage_645/GARBAGE/data/Images/1357.jpg'
p419
(lp420
I10
aI201
aI346
aI193
asS'/home/tarun/Downloads/garbage_645/GARBAGE/data/Images/2184.jpg'
p421
(lp422
I9
aI170
aI301
aI201
asS'/home/tarun/Downloads/garbage_645/GARBAGE/data/Images/25.jpg'
p423
(lp424
I123
aI115
aI314
aI158
asS'/home/tarun/Downloads/garbage_645/GARBAGE/data/Images/2569.jpg'
p425
(lp426
I355
aI179
aI214
aI135
asS'/home/tarun/Downloads/garbage_645/GARBAGE/data/Images/2117.jpg'
p427
(lp428
I41
aI298
aI218
aI109
asS'/home/tarun/Downloads/garbage_645/GARBAGE/data/Images/2916.jpg'
p429
(lp430
I17
aI154
aI315
aI58
asS'/home/tarun/Downloads/garbage_645/GARBAGE/data/Images/2094.jpg'
p431
(lp432
I254
aI81
aI219
aI200
asS'/home/tarun/Downloads/garbage_645/GARBAGE/data/Images/258.jpg'
p433
(lp434
I61
aI210
aI199
aI128
asS'/home/tarun/Downloads/garbage_645/GARBAGE/data/Images/537.jpg'
p435
(lp436
I137
aI60
aI367
aI179
asS'/home/tarun/Downloads/garbage_645/GARBAGE/data/Images/629.jpg'
p437
(lp438
I31
aI96
aI78
aI73
asS'/home/tarun/Downloads/garbage_645/GARBAGE/data/Images/104.jpg'
p439
(lp440
I99
aI136
aI486
aI146
asS'/home/tarun/Downloads/garbage_645/GARBAGE/data/Images/1565.jpg'
p441
(lp442
I146
aI166
aI259
aI156
asS'/home/tarun/Downloads/garbage_645/GARBAGE/data/Images/489.jpg'
p443
(lp444
I213
aI203
aI75
aI56
asS'/home/tarun/Downloads/garbage_645/GARBAGE/data/Images/750.jpg'
p445
(lp446
I3
aI131
aI166
aI89
asS'/home/tarun/Downloads/garbage_645/GARBAGE/data/Images/2120.jpg'
p447
(lp448
I70
aI98
aI233
aI100
asS'/home/tarun/Downloads/garbage_645/GARBAGE/data/Images/1358.jpg'
p449
(lp450
I90
aI129
aI59
aI126
asS'/home/tarun/Downloads/garbage_645/GARBAGE/data/Images/2006.jpg'
p451
(lp452
I82
aI120
aI119
aI97
asS'/home/tarun/Downloads/garbage_645/GARBAGE/data/Images/826.jpg'
p453
(lp454
I28
aI98
aI433
aI160
asS'/home/tarun/Downloads/garbage_645/GARBAGE/data/Images/2390.jpg'
p455
(lp456
I44
aI242
aI260
aI99
asS'/home/tarun/Downloads/garbage_645/GARBAGE/data/Images/1064.jpg'
p457
(lp458
I185
aI19
aI212
aI96
asS'/home/tarun/Downloads/garbage_645/GARBAGE/data/Images/2954.jpg'
p459
(lp460
I8
aI176
aI158
aI80
asS'/home/tarun/Downloads/garbage_645/GARBAGE/data/Images/1756.jpg'
p461
(lp462
I133
aI218
aI357
aI126
asS'/home/tarun/Downloads/garbage_645/GARBAGE/data/Images/1043.jpg'
p463
(lp464
I82
aI105
aI151
aI111
asS'/home/tarun/Downloads/garbage_645/GARBAGE/data/Images/852.jpg'
p465
(lp466
I66
aI254
aI382
aI91
asS'/home/tarun/Downloads/garbage_645/GARBAGE/data/Images/2656.jpg'
p467
(lp468
I299
aI269
aI323
aI116
asS'/home/tarun/Downloads/garbage_645/GARBAGE/data/Images/1502.jpg'
p469
(lp470
I17
aI63
aI200
aI237
asS'/home/tarun/Downloads/garbage_645/GARBAGE/data/Images/164.jpg'
p471
(lp472
I65
aI186
aI267
aI153
asS'/home/tarun/Downloads/garbage_645/GARBAGE/data/Images/1840.jpg'
p473
(lp474
I220
aI102
aI277
aI138
asS'/home/tarun/Downloads/garbage_645/GARBAGE/data/Images/324.jpg'
p475
(lp476
I47
aI129
aI283
aI186
asS'/home/tarun/Downloads/garbage_645/GARBAGE/data/Images/2206.jpg'
p477
(lp478
I60
aI153
aI122
aI72
asS'/home/tarun/Downloads/garbage_645/GARBAGE/data/Images/891.jpg'
p479
(lp480
I189
aI154
aI101
aI51
asS'/home/tarun/Downloads/garbage_645/GARBAGE/data/Images/340.jpg'
p481
(lp482
I120
aI78
aI183
aI110
asS'/home/tarun/Downloads/garbage_645/GARBAGE/data/Images/351.jpg'
p483
(lp484
I73
aI194
aI200
aI85
asS'/home/tarun/Downloads/garbage_645/GARBAGE/data/Images/889.jpg'
p485
(lp486
I21
aI89
aI165
aI197
asS'/home/tarun/Downloads/garbage_645/GARBAGE/data/Images/1198.jpg'
p487
(lp488
I11
aI145
aI242
aI133
asS'/home/tarun/Downloads/garbage_645/GARBAGE/data/Images/2275.jpg'
p489
(lp490
I25
aI160
aI448
aI86
asS'/home/tarun/Downloads/garbage_645/GARBAGE/data/Images/2406.jpg'
p491
(lp492
I113
aI144
aI286
aI105
asS'/home/tarun/Downloads/garbage_645/GARBAGE/data/Images/414.jpg'
p493
(lp494
I50
aI125
aI282
aI373
asS'/home/tarun/Downloads/garbage_645/GARBAGE/data/Images/10.jpg'
p495
(lp496
I40
aI159
aI193
aI157
asS'/home/tarun/Downloads/garbage_645/GARBAGE/data/Images/2691.jpg'
p497
(lp498
I22
aI119
aI416
aI135
asS'/home/tarun/Downloads/garbage_645/GARBAGE/data/Images/2697.jpg'
p499
(lp500
I17
aI108
aI304
aI101
asS'/home/tarun/Downloads/garbage_645/GARBAGE/data/Images/2631.jpg'
p501
(lp502
I75
aI101
aI406
aI67
asS'/home/tarun/Downloads/garbage_645/GARBAGE/data/Images/1710.jpg'
p503
(lp504
I175
aI146
aI429
aI142
asS'/home/tarun/Downloads/garbage_645/GARBAGE/data/Images/2291.jpg'
p505
(lp506
I192
aI71
aI145
aI158
asS'/home/tarun/Downloads/garbage_645/GARBAGE/data/Images/1254.jpg'
p507
(lp508
I8
aI159
aI191
aI172
asS'/home/tarun/Downloads/garbage_645/GARBAGE/data/Images/28.jpg'
p509
(lp510
I112
aI52
aI145
aI102
asS'/home/tarun/Downloads/garbage_645/GARBAGE/data/Images/364.jpg'
p511
(lp512
I8
aI155
aI170
aI126
asS'/home/tarun/Downloads/garbage_645/GARBAGE/data/Images/89.jpg'
p513
(lp514
I73
aI85
aI414
aI148
asS'/home/tarun/Downloads/garbage_645/GARBAGE/data/Images/2347.jpg'
p515
(lp516
I45
aI268
aI272
aI205
asS'/home/tarun/Downloads/garbage_645/GARBAGE/data/Images/1704.jpg'
p517
(lp518
I155
aI99
aI354
aI199
asS'/home/tarun/Downloads/garbage_645/GARBAGE/data/Images/949.jpg'
p519
(lp520
I22
aI85
aI358
aI109
asS'/home/tarun/Downloads/garbage_645/GARBAGE/data/Images/1257.jpg'
p521
(lp522
I59
aI118
aI219
aI184
asS'/home/tarun/Downloads/garbage_645/GARBAGE/data/Images/3.jpg'
p523
(lp524
I154
aI60
aI164
aI118
asS'/home/tarun/Downloads/garbage_645/GARBAGE/data/Images/1410.jpg'
p525
(lp526
I84
aI338
aI165
aI95
asS'/home/tarun/Downloads/garbage_645/GARBAGE/data/Images/2105.jpg'
p527
(lp528
I8
aI113
aI328
aI308
asS'/home/tarun/Downloads/garbage_645/GARBAGE/data/Images/2051.jpg'
p529
(lp530
I10
aI109
aI327
aI284
asS'/home/tarun/Downloads/garbage_645/GARBAGE/data/Images/2648.jpg'
p531
(lp532
I33
aI373
aI206
aI113
asS'/home/tarun/Downloads/garbage_645/GARBAGE/data/Images/97.jpg'
p533
(lp534
I46
aI80
aI109
aI76
asS'/home/tarun/Downloads/garbage_645/GARBAGE/data/Images/468.jpg'
p535
(lp536
I3
aI231
aI190
aI122
asS'/home/tarun/Downloads/garbage_645/GARBAGE/data/Images/2834.jpg'
p537
(lp538
I172
aI138
aI142
aI76
asS'/home/tarun/Downloads/garbage_645/GARBAGE/data/Images/1900.jpg'
p539
(lp540
I109
aI139
aI387
aI171
asS'/home/tarun/Downloads/garbage_645/GARBAGE/data/Images/1306.jpg'
p541
(lp542
I106
aI114
aI329
aI175
asS'/home/tarun/Downloads/garbage_645/GARBAGE/data/Images/2875.jpg'
p543
(lp544
I12
aI396
aI192
aI230
asS'/home/tarun/Downloads/garbage_645/GARBAGE/data/Images/2949.jpg'
p545
(lp546
I230
aI166
aI245
aI105
asS'/home/tarun/Downloads/garbage_645/GARBAGE/data/Images/204.jpg'
p547
(lp548
I73
aI80
aI353
aI181
asS'/home/tarun/Downloads/garbage_645/GARBAGE/data/Images/2967.jpg'
p549
(lp550
I24
aI129
aI157
aI117
asS'/home/tarun/Downloads/garbage_645/GARBAGE/data/Images/1173.jpg'
p551
(lp552
I62
aI90
aI186
aI209
asS'/home/tarun/Downloads/garbage_645/GARBAGE/data/Images/1871.jpg'
p553
(lp554
I52
aI248
aI274
aI194
asS'/home/tarun/Downloads/garbage_645/GARBAGE/data/Images/857.jpg'
p555
(lp556
I53
aI145
aI251
aI193
asS'/home/tarun/Downloads/garbage_645/GARBAGE/data/Images/2653.jpg'
p557
(lp558
I84
aI170
aI164
aI77
asS'/home/tarun/Downloads/garbage_645/GARBAGE/data/Images/972.jpg'
p559
(lp560
I17
aI127
aI200
aI120
asS'/home/tarun/Downloads/garbage_645/GARBAGE/data/Images/174.jpg'
p561
(lp562
I37
aI200
aI288
aI115
asS'/home/tarun/Downloads/garbage_645/GARBAGE/data/Images/1846.jpg'
p563
(lp564
I138
aI180
aI311
aI142
asS'/home/tarun/Downloads/garbage_645/GARBAGE/data/Images/2886.jpg'
p565
(lp566
I129
aI60
aI259
aI124
asS'/home/tarun/Downloads/garbage_645/GARBAGE/data/Images/202.jpg'
p567
(lp568
I121
aI123
aI242
aI127
asS'/home/tarun/Downloads/garbage_645/GARBAGE/data/Images/1017.jpg'
p569
(lp570
I48
aI246
aI278
aI110
asS'/home/tarun/Downloads/garbage_645/GARBAGE/data/Images/469.jpg'
p571
(lp572
I142
aI61
aI158
aI100
asS'/home/tarun/Downloads/garbage_645/GARBAGE/data/Images/2248.jpg'
p573
(lp574
I217
aI126
aI176
aI160
asS'/home/tarun/Downloads/garbage_645/GARBAGE/data/Images/892.jpg'
p575
(lp576
I139
aI124
aI186
aI62
asS'/home/tarun/Downloads/garbage_645/GARBAGE/data/Images/2933.jpg'
p577
(lp578
I78
aI129
aI384
aI117
asS'/home/tarun/Downloads/garbage_645/GARBAGE/data/Images/680.jpg'
p579
(lp580
I30
aI229
aI261
aI69
asS'/home/tarun/Downloads/garbage_645/GARBAGE/data/Images/441.jpg'
p581
(lp582
I31
aI249
aI219
aI115
asS'/home/tarun/Downloads/garbage_645/GARBAGE/data/Images/1918.jpg'
p583
(lp584
I36
aI153
aI399
aI195
asS'/home/tarun/Downloads/garbage_645/GARBAGE/data/Images/1067.jpg'
p585
(lp586
I146
aI163
aI355
aI190
asS'/home/tarun/Downloads/garbage_645/GARBAGE/data/Images/1453.jpg'
p587
(lp588
I168
aI141
aI137
aI99
asS'/home/tarun/Downloads/garbage_645/GARBAGE/data/Images/795.jpg'
p589
(lp590
I40
aI166
aI232
aI96
asS'/home/tarun/Downloads/garbage_645/GARBAGE/data/Images/2258.jpg'
p591
(lp592
I98
aI272
aI136
aI107
asS'/home/tarun/Downloads/garbage_645/GARBAGE/data/Images/827.jpg'
p593
(lp594
I212
aI57
aI181
aI143
asS'/home/tarun/Downloads/garbage_645/GARBAGE/data/Images/1460.jpg'
p595
(lp596
I73
aI179
aI103
aI44
asS'/home/tarun/Downloads/garbage_645/GARBAGE/data/Images/2674.jpg'
p597
(lp598
I88
aI80
aI103
aI107
asS'/home/tarun/Downloads/garbage_645/GARBAGE/data/Images/1051.jpg'
p599
(lp600
I54
aI98
aI157
aI114
asS'/home/tarun/Downloads/garbage_645/GARBAGE/data/Images/197.jpg'
p601
(lp602
I198
aI164
aI131
aI66
asS'/home/tarun/Downloads/garbage_645/GARBAGE/data/Images/2369.jpg'
p603
(lp604
I76
aI239
aI135
aI62
asS'/home/tarun/Downloads/garbage_645/GARBAGE/data/Images/2483.jpg'
p605
(lp606
I27
aI133
aI486
aI168
asS'/home/tarun/Downloads/garbage_645/GARBAGE/data/Images/1614.jpg'
p607
(lp608
I64
aI269
aI247
aI189
asS'/home/tarun/Downloads/garbage_645/GARBAGE/data/Images/2606.jpg'
p609
(lp610
I396
aI120
aI188
aI113
asS'/home/tarun/Downloads/garbage_645/GARBAGE/data/Images/882.jpg'
p611
(lp612
I118
aI169
aI93
aI61
asS'/home/tarun/Downloads/garbage_645/GARBAGE/data/Images/1642.jpg'
p613
(lp614
I12
aI173
aI179
aI103
asS'/home/tarun/Downloads/garbage_645/GARBAGE/data/Images/1015.jpg'
p615
(lp616
I35
aI98
aI435
aI173
asS'/home/tarun/Downloads/garbage_645/GARBAGE/data/Images/885.jpg'
p617
(lp618
I145
aI95
aI311
aI124
asS'/home/tarun/Downloads/garbage_645/GARBAGE/data/Images/2988.jpg'
p619
(lp620
I25
aI167
aI183
aI100
asS'/home/tarun/Downloads/garbage_645/GARBAGE/data/Images/735.jpg'
p621
(lp622
I83
aI86
aI136
aI85
asS'/home/tarun/Downloads/garbage_645/GARBAGE/data/Images/1466.jpg'
p623
(lp624
I41
aI93
aI140
aI136
asS'/home/tarun/Downloads/garbage_645/GARBAGE/data/Images/2289.jpg'
p625
(lp626
I78
aI156
aI130
aI87
asS'/home/tarun/Downloads/garbage_645/GARBAGE/data/Images/60.jpg'
p627
(lp628
I134
aI34
aI201
aI242
asS'/home/tarun/Downloads/garbage_645/GARBAGE/data/Images/1487.jpg'
p629
(lp630
I234
aI151
aI159
aI100
asS'/home/tarun/Downloads/garbage_645/GARBAGE/data/Images/1018.jpg'
p631
(lp632
I44
aI89
aI193
aI180
asS'/home/tarun/Downloads/garbage_645/GARBAGE/data/Images/480.jpg'
p633
(lp634
I21
aI248
aI228
aI126
asS'/home/tarun/Downloads/garbage_645/GARBAGE/data/Images/1652.jpg'
p635
(lp636
I31
aI142
aI293
aI203
asS'/home/tarun/Downloads/garbage_645/GARBAGE/data/Images/38.jpg'
p637
(lp638
I67
aI19
aI417
aI268
asS'/home/tarun/Downloads/garbage_645/GARBAGE/data/Images/2897.jpg'
p639
(lp640
I14
aI167
aI201
aI96
asS'/home/tarun/Downloads/garbage_645/GARBAGE/data/Images/2649.jpg'
p641
(lp642
I4
aI199
aI302
aI140
asS'/home/tarun/Downloads/garbage_645/GARBAGE/data/Images/429.jpg'
p643
(lp644
I52
aI92
aI163
aI208
asS'/home/tarun/Downloads/garbage_645/GARBAGE/data/Images/2403.jpg'
p645
(lp646
I28
aI132
aI270
aI83
asS'/home/tarun/Downloads/garbage_645/GARBAGE/data/Images/1289.jpg'
p647
(lp648
I221
aI173
aI280
aI162
asS'/home/tarun/Downloads/garbage_645/GARBAGE/data/Images/1863.jpg'
p649
(lp650
I16
aI256
aI237
aI135
asS'/home/tarun/Downloads/garbage_645/GARBAGE/data/Images/297.jpg'
p651
(lp652
I176
aI271
aI121
aI95
asS'/home/tarun/Downloads/garbage_645/GARBAGE/data/Images/256.jpg'
p653
(lp654
I153
aI73
aI389
aI189
asS'/home/tarun/Downloads/garbage_645/GARBAGE/data/Images/307.jpg'
p655
(lp656
I44
aI136
aI171
aI123
asS'/home/tarun/Downloads/garbage_645/GARBAGE/data/Images/203.jpg'
p657
(lp658
I141
aI99
aI462
aI144
asS'/home/tarun/Downloads/garbage_645/GARBAGE/data/Images/380.jpg'
p659
(lp660
I37
aI132
aI295
aI270
asS'/home/tarun/Downloads/garbage_645/GARBAGE/data/Images/1643.jpg'
p661
(lp662
I185
aI169
aI262
aI99
asS'/home/tarun/Downloads/garbage_645/GARBAGE/data/Images/511.jpg'
p663
(lp664
I49
aI159
aI234
aI133
asS'/home/tarun/Downloads/garbage_645/GARBAGE/data/Images/1031.jpg'
p665
(lp666
I123
aI101
aI467
aI243
asS'/home/tarun/Downloads/garbage_645/GARBAGE/data/Images/643.jpg'
p667
(lp668
I79
aI134
aI385
aI193
asS'/home/tarun/Downloads/garbage_645/GARBAGE/data/Images/1263.jpg'
p669
(lp670
I157
aI81
aI280
aI221
asS'/home/tarun/Downloads/garbage_645/GARBAGE/data/Images/879.jpg'
p671
(lp672
I66
aI119
aI201
aI125
asS'/home/tarun/Downloads/garbage_645/GARBAGE/data/Images/494.jpg'
p673
(lp674
I86
aI168
aI131
aI92
asS'/home/tarun/Downloads/garbage_645/GARBAGE/data/Images/2822.jpg'
p675
(lp676
I46
aI141
aI113
aI89
asS'/home/tarun/Downloads/garbage_645/GARBAGE/data/Images/2092.jpg'
p677
(lp678
I337
aI104
aI297
aI187
asS'/home/tarun/Downloads/garbage_645/GARBAGE/data/Images/2850.jpg'
p679
(lp680
I72
aI143
aI176
aI78
asS'/home/tarun/Downloads/garbage_645/GARBAGE/data/Images/1534.jpg'
p681
(lp682
I41
aI78
aI166
aI186
asS'/home/tarun/Downloads/garbage_645/GARBAGE/data/Images/2466.jpg'
p683
(lp684
I23
aI108
aI324
aI208
asS'/home/tarun/Downloads/garbage_645/GARBAGE/data/Images/67.jpg'
p685
(lp686
I144
aI200
aI247
aI25
asS'/home/tarun/Downloads/garbage_645/GARBAGE/data/Images/521.jpg'
p687
(lp688
I141
aI77
aI325
aI265
asS'/home/tarun/Downloads/garbage_645/GARBAGE/data/Images/1624.jpg'
p689
(lp690
I123
aI130
aI220
aI176
asS'/home/tarun/Downloads/garbage_645/GARBAGE/data/Images/2684.jpg'
p691
(lp692
I109
aI274
aI322
aI150
asS'/home/tarun/Downloads/garbage_645/GARBAGE/data/Images/271.jpg'
p693
(lp694
I185
aI128
aI89
aI68
asS'/home/tarun/Downloads/garbage_645/GARBAGE/data/Images/2878.jpg'
p695
(lp696
I85
aI111
aI257
aI164
asS'/home/tarun/Downloads/garbage_645/GARBAGE/data/Images/1823.jpg'
p697
(lp698
I124
aI149
aI293
aI206
asS'/home/tarun/Downloads/garbage_645/GARBAGE/data/Images/167.jpg'
p699
(lp700
I106
aI126
aI164
aI131
asS'/home/tarun/Downloads/garbage_645/GARBAGE/data/Images/2911.jpg'
p701
(lp702
I245
aI225
aI153
aI54
asS'/home/tarun/Downloads/garbage_645/GARBAGE/data/Images/44.jpg'
p703
(lp704
I45
aI151
aI100
aI76
asS'/home/tarun/Downloads/garbage_645/GARBAGE/data/Images/1533.jpg'
p705
(lp706
I198
aI151
aI255
aI90
asS'/home/tarun/Downloads/garbage_645/GARBAGE/data/Images/1811.jpg'
p707
(lp708
I20
aI150
aI105
aI56
asS'/home/tarun/Downloads/garbage_645/GARBAGE/data/Images/2670.jpg'
p709
(lp710
I182
aI146
aI177
aI100
asS'/home/tarun/Downloads/garbage_645/GARBAGE/data/Images/207.jpg'
p711
(lp712
I163
aI129
aI253
aI201
asS'/home/tarun/Downloads/garbage_645/GARBAGE/data/Images/1207.jpg'
p713
(lp714
I175
aI192
aI231
aI153
asS'/home/tarun/Downloads/garbage_645/GARBAGE/data/Images/1128.jpg'
p715
(lp716
I8
aI53
aI424
aI200
asS'/home/tarun/Downloads/garbage_645/GARBAGE/data/Images/1356.jpg'
p717
(lp718
I22
aI99
aI434
aI152
asS'/home/tarun/Downloads/garbage_645/GARBAGE/data/Images/635.jpg'
p719
(lp720
I124
aI168
aI142
aI70
asS'/home/tarun/Downloads/garbage_645/GARBAGE/data/Images/2098.jpg'
p721
(lp722
I85
aI35
aI253
aI179
asS'/home/tarun/Downloads/garbage_645/GARBAGE/data/Images/108.jpg'
p723
(lp724
I156
aI162
aI89
aI47
asS'/home/tarun/Downloads/garbage_645/GARBAGE/data/Images/455.jpg'
p725
(lp726
I19
aI119
aI180
aI105
asS'/home/tarun/Downloads/garbage_645/GARBAGE/data/Images/423.jpg'
p727
(lp728
I81
aI191
aI341
aI157
asS'/home/tarun/Downloads/garbage_645/GARBAGE/data/Images/87.jpg'
p729
(lp730
I154
aI132
aI268
aI99
asS'/home/tarun/Downloads/garbage_645/GARBAGE/data/Images/22.jpg'
p731
(lp732
I16
aI75
aI525
aI254
asS'/home/tarun/Downloads/garbage_645/GARBAGE/data/Images/2894.jpg'
p733
(lp734
I143
aI196
aI203
aI38
asS'/home/tarun/Downloads/garbage_645/GARBAGE/data/Images/1551.jpg'
p735
(lp736
I57
aI263
aI285
aI117
asS'/home/tarun/Downloads/garbage_645/GARBAGE/data/Images/1521.jpg'
p737
(lp738
I126
aI201
aI198
aI175
asS'/home/tarun/Downloads/garbage_645/GARBAGE/data/Images/2789.jpg'
p739
(lp740
I114
aI52
aI347
aI141
asS'/home/tarun/Downloads/garbage_645/GARBAGE/data/Images/684.jpg'
p741
(lp742
I44
aI197
aI210
aI66
asS'/home/tarun/Downloads/garbage_645/GARBAGE/data/Images/220.jpg'
p743
(lp744
I212
aI154
aI111
aI77
asS'/home/tarun/Downloads/garbage_645/GARBAGE/data/Images/1272.jpg'
p745
(lp746
I54
aI71
aI305
aI260
asS'/home/tarun/Downloads/garbage_645/GARBAGE/data/Images/2357.jpg'
p747
(lp748
I44
aI274
aI285
aI141
asS'/home/tarun/Downloads/garbage_645/GARBAGE/data/Images/1452.jpg'
p749
(lp750
I105
aI160
aI364
aI139
asS'/home/tarun/Downloads/garbage_645/GARBAGE/data/Images/1640.jpg'
p751
(lp752
I27
aI164
aI320
aI125
asS'/home/tarun/Downloads/garbage_645/GARBAGE/data/Images/2140.jpg'
p753
(lp754
I223
aI61
aI343
aI165
asS'/home/tarun/Downloads/garbage_645/GARBAGE/data/Images/61.jpg'
p755
(lp756
I26
aI78
aI343
aI164
asS'/home/tarun/Downloads/garbage_645/GARBAGE/data/Images/1839.jpg'
p757
(lp758
I20
aI94
aI405
aI152
asS'/home/tarun/Downloads/garbage_645/GARBAGE/data/Images/476.jpg'
p759
(lp760
I15
aI16
aI222
aI211
asS'/home/tarun/Downloads/garbage_645/GARBAGE/data/Images/2395.jpg'
p761
(lp762
I86
aI109
aI322
aI232
asS'/home/tarun/Downloads/garbage_645/GARBAGE/data/Images/1464.jpg'
p763
(lp764
I78
aI159
aI491
aI110
asS'/home/tarun/Downloads/garbage_645/GARBAGE/data/Images/1091.jpg'
p765
(lp766
I92
aI143
aI99
aI101
asS'/home/tarun/Downloads/garbage_645/GARBAGE/data/Images/2865.jpg'
p767
(lp768
I47
aI232
aI237
aI167
asS'/home/tarun/Downloads/garbage_645/GARBAGE/data/Images/2169.jpg'
p769
(lp770
I40
aI339
aI260
aI230
asS'/home/tarun/Downloads/garbage_645/GARBAGE/data/Images/849.jpg'
p771
(lp772
I69
aI120
aI195
aI114
asS'/home/tarun/Downloads/garbage_645/GARBAGE/data/Images/778.jpg'
p773
(lp774
I59
aI169
aI111
aI60
asS'/home/tarun/Downloads/garbage_645/GARBAGE/data/Images/397.jpg'
p775
(lp776
I69
aI168
aI201
aI175
asS'/home/tarun/Downloads/garbage_645/GARBAGE/data/Images/1539.jpg'
p777
(lp778
I48
aI165
aI121
aI77
asS'/home/tarun/Downloads/garbage_645/GARBAGE/data/Images/2699.jpg'
p779
(lp780
I42
aI151
aI90
aI46
asS'/home/tarun/Downloads/garbage_645/GARBAGE/data/Images/1991.jpg'
p781
(lp782
I3
aI152
aI175
aI80
asS'/home/tarun/Downloads/garbage_645/GARBAGE/data/Images/290.jpg'
p783
(lp784
I3
aI138
aI312
aI189
asS'/home/tarun/Downloads/garbage_645/GARBAGE/data/Images/2032.jpg'
p785
(lp786
I21
aI105
aI385
aI209
asS'/home/tarun/Downloads/garbage_645/GARBAGE/data/Images/304.jpg'
p787
(lp788
I69
aI109
aI150
aI116
asS'/home/tarun/Downloads/garbage_645/GARBAGE/data/Images/55.jpg'
p789
(lp790
I21
aI31
aI207
aI86
asS'/home/tarun/Downloads/garbage_645/GARBAGE/data/Images/2407.jpg'
p791
(lp792
I50
aI76
aI124
aI115
asS'/home/tarun/Downloads/garbage_645/GARBAGE/data/Images/2820.jpg'
p793
(lp794
I30
aI5
aI582
aI232
asS'/home/tarun/Downloads/garbage_645/GARBAGE/data/Images/1646.jpg'
p795
(lp796
I53
aI163
aI337
aI175
asS'/home/tarun/Downloads/garbage_645/GARBAGE/data/Images/1301.jpg'
p797
(lp798
I301
aI174
aI266
aI70
asS'/home/tarun/Downloads/garbage_645/GARBAGE/data/Images/2669.jpg'
p799
(lp800
I375
aI219
aI280
aI107
asS'/home/tarun/Downloads/garbage_645/GARBAGE/data/Images/2121.jpg'
p801
(lp802
I38
aI106
aI371
aI131
asS'/home/tarun/Downloads/garbage_645/GARBAGE/data/Images/247.jpg'
p803
(lp804
I53
aI157
aI390
aI84
asS'/home/tarun/Downloads/garbage_645/GARBAGE/data/Images/716.jpg'
p805
(lp806
I108
aI138
aI125
aI92
asS'/home/tarun/Downloads/garbage_645/GARBAGE/data/Images/2896.jpg'
p807
(lp808
I137
aI159
aI231
aI119
asS'/home/tarun/Downloads/garbage_645/GARBAGE/data/Images/74.jpg'
p809
(lp810
I205
aI137
aI163
aI115
asS'/home/tarun/Downloads/garbage_645/GARBAGE/data/Images/745.jpg'
p811
(lp812
I12
aI123
aI125
aI57
asS'/home/tarun/Downloads/garbage_645/GARBAGE/data/Images/2831.jpg'
p813
(lp814
I57
aI78
aI118
aI209
asS'/home/tarun/Downloads/garbage_645/GARBAGE/data/Images/2520.jpg'
p815
(lp816
I77
aI94
aI434
aI212
asS'/home/tarun/Downloads/garbage_645/GARBAGE/data/Images/1483.jpg'
p817
(lp818
I187
aI157
aI162
aI82
asS'/home/tarun/Downloads/garbage_645/GARBAGE/data/Images/471.jpg'
p819
(lp820
I150
aI158
aI116
aI140
asS'/home/tarun/Downloads/garbage_645/GARBAGE/data/Images/392.jpg'
p821
(lp822
I69
aI208
aI212
aI170
asS'/home/tarun/Downloads/garbage_645/GARBAGE/data/Images/2280.jpg'
p823
(lp824
I29
aI123
aI148
aI103
asS'/home/tarun/Downloads/garbage_645/GARBAGE/data/Images/531.jpg'
p825
(lp826
I204
aI193
aI105
aI80
asS'/home/tarun/Downloads/garbage_645/GARBAGE/data/Images/1256.jpg'
p827
(lp828
I147
aI136
aI223
aI89
asS'/home/tarun/Downloads/garbage_645/GARBAGE/data/Images/2970.jpg'
p829
(lp830
I45
aI114
aI155
aI138
asS'/home/tarun/Downloads/garbage_645/GARBAGE/data/Images/2309.jpg'
p831
(lp832
I6
aI146
aI294
aI126
asS'/home/tarun/Downloads/garbage_645/GARBAGE/data/Images/568.jpg'
p833
(lp834
I47
aI39
aI396
aI230
asS'/home/tarun/Downloads/garbage_645/GARBAGE/data/Images/563.jpg'
p835
(lp836
I13
aI92
aI577
aI241
asS'/home/tarun/Downloads/garbage_645/GARBAGE/data/Images/1023.jpg'
p837
(lp838
I20
aI120
aI212
aI112
asS'/home/tarun/Downloads/garbage_645/GARBAGE/data/Images/2665.jpg'
p839
(lp840
I6
aI60
aI163
aI201
asS'/home/tarun/Downloads/garbage_645/GARBAGE/data/Images/495.jpg'
p841
(lp842
I5
aI363
aI238
aI137
asS'/home/tarun/Downloads/garbage_645/GARBAGE/data/Images/878.jpg'
p843
(lp844
I155
aI134
aI109
aI88
asS'/home/tarun/Downloads/garbage_645/GARBAGE/data/Images/2671.jpg'
p845
(lp846
I41
aI74
aI140
aI79
asS'/home/tarun/Downloads/garbage_645/GARBAGE/data/Images/1020.jpg'
p847
(lp848
I90
aI174
aI92
aI43
asS'/home/tarun/Downloads/garbage_645/GARBAGE/data/Images/2204.jpg'
p849
(lp850
I53
aI93
aI136
aI156
asS'/home/tarun/Downloads/garbage_645/GARBAGE/data/Images/456.jpg'
p851
(lp852
I17
aI180
aI112
aI131
asS'/home/tarun/Downloads/garbage_645/GARBAGE/data/Images/575.jpg'
p853
(lp854
I48
aI59
aI549
aI288
asS'/home/tarun/Downloads/garbage_645/GARBAGE/data/Images/586.jpg'
p855
(lp856
I31
aI60
aI387
aI147
asS'/home/tarun/Downloads/garbage_645/GARBAGE/data/Images/1251.jpg'
p857
(lp858
I12
aI111
aI453
aI157
asS'/home/tarun/Downloads/garbage_645/GARBAGE/data/Images/1014.jpg'
p859
(lp860
I149
aI130
aI204
aI125
asS'/home/tarun/Downloads/garbage_645/GARBAGE/data/Images/886.jpg'
p861
(lp862
I30
aI110
aI166
aI118
asS'/home/tarun/Downloads/garbage_645/GARBAGE/data/Images/2479.jpg'
p863
(lp864
I60
aI152
aI340
aI90
asS'/home/tarun/Downloads/garbage_645/GARBAGE/data/Images/2130.jpg'
p865
(lp866
I84
aI94
aI150
aI120
asS'/home/tarun/Downloads/garbage_645/GARBAGE/data/Images/1201.jpg'
p867
(lp868
I42
aI221
aI303
aI270
asS'/home/tarun/Downloads/garbage_645/GARBAGE/data/Images/257.jpg'
p869
(lp870
I85
aI221
aI110
aI71
asS'/home/tarun/Downloads/garbage_645/GARBAGE/data/Images/296.jpg'
p871
(lp872
I28
aI86
aI234
aI134
asS'/home/tarun/Downloads/garbage_645/GARBAGE/data/Images/673.jpg'
p873
(lp874
I28
aI86
aI114
aI103
asS'/home/tarun/Downloads/garbage_645/GARBAGE/data/Images/1279.jpg'
p875
(lp876
I3
aI196
aI104
aI118
asS'/home/tarun/Downloads/garbage_645/GARBAGE/data/Images/1540.jpg'
p877
(lp878
I26
aI126
aI249
aI97
asS'/home/tarun/Downloads/garbage_645/GARBAGE/data/Images/2216.jpg'
p879
(lp880
I78
aI291
aI158
aI155
asS'/home/tarun/Downloads/garbage_645/GARBAGE/data/Images/227.jpg'
p881
(lp882
I82
aI165
aI115
aI63
asS'/home/tarun/Downloads/garbage_645/GARBAGE/data/Images/2683.jpg'
p883
(lp884
I206
aI144
aI275
aI115
asS'/home/tarun/Downloads/garbage_645/GARBAGE/data/Images/2093.jpg'
p885
(lp886
I201
aI129
aI373
aI117
asS'/home/tarun/Downloads/garbage_645/GARBAGE/data/Images/72.jpg'
p887
(lp888
I159
aI100
aI268
aI141
asS'/home/tarun/Downloads/garbage_645/GARBAGE/data/Images/652.jpg'
p889
(lp890
I336
aI202
aI162
aI107
asS'/home/tarun/Downloads/garbage_645/GARBAGE/data/Images/27.jpg'
p891
(lp892
I345
aI130
aI151
aI177
asS'/home/tarun/Downloads/garbage_645/GARBAGE/data/Images/1852.jpg'
p893
(lp894
I32
aI100
aI139
aI128
asS'/home/tarun/Downloads/garbage_645/GARBAGE/data/Images/1554.jpg'
p895
(lp896
I12
aI70
aI181
aI137
asS'/home/tarun/Downloads/garbage_645/GARBAGE/data/Images/540.jpg'
p897
(lp898
I192
aI138
aI239
aI91
asS'/home/tarun/Downloads/garbage_645/GARBAGE/data/Images/2482.jpg'
p899
(lp900
I76
aI156
aI111
aI64
asS'/home/tarun/Downloads/garbage_645/GARBAGE/data/Images/1838.jpg'
p901
(lp902
I67
aI147
aI132
aI68
asS'/home/tarun/Downloads/garbage_645/GARBAGE/data/Images/1044.jpg'
p903
(lp904
I36
aI148
aI114
aI45
asS'/home/tarun/Downloads/garbage_645/GARBAGE/data/Images/378.jpg'
p905
(lp906
I50
aI113
aI330
aI153
asS'/home/tarun/Downloads/garbage_645/GARBAGE/data/Images/2015.jpg'
p907
(lp908
I106
aI130
aI362
aI74
asS'/home/tarun/Downloads/garbage_645/GARBAGE/data/Images/1078.jpg'
p909
(lp910
I187
aI147
aI175
aI92
asS'/home/tarun/Downloads/garbage_645/GARBAGE/data/Images/9.jpg'
p911
(lp912
I91
aI164
aI200
aI113
asS'/home/tarun/Downloads/garbage_645/GARBAGE/data/Images/2128.jpg'
p913
(lp914
I33
aI143
aI140
aI78
asS'/home/tarun/Downloads/garbage_645/GARBAGE/data/Images/1699.jpg'
p915
(lp916
I41
aI250
aI322
aI62
asS'/home/tarun/Downloads/garbage_645/GARBAGE/data/Images/1716.jpg'
p917
(lp918
I173
aI238
aI90
aI50
asS'/home/tarun/Downloads/garbage_645/GARBAGE/data/Images/201.jpg'
p919
(lp920
I209
aI199
aI174
aI54
asS'/home/tarun/Downloads/garbage_645/GARBAGE/data/Images/2414.jpg'
p921
(lp922
I30
aI129
aI150
aI102
asS'/home/tarun/Downloads/garbage_645/GARBAGE/data/Images/1252.jpg'
p923
(lp924
I3
aI103
aI221
aI100
asS'/home/tarun/Downloads/garbage_645/GARBAGE/data/Images/772.jpg'
p925
(lp926
I84
aI169
aI102
aI58
asS'/home/tarun/Downloads/garbage_645/GARBAGE/data/Images/2801.jpg'
p927
(lp928
I8
aI79
aI184
aI210
asS'/home/tarun/Downloads/garbage_645/GARBAGE/data/Images/2495.jpg'
p929
(lp930
I49
aI161
aI135
aI70
asS'/home/tarun/Downloads/garbage_645/GARBAGE/data/Images/2655.jpg'
p931
(lp932
I94
aI93
aI228
aI202
asS'/home/tarun/Downloads/garbage_645/GARBAGE/data/Images/14.jpg'
p933
(lp934
I103
aI118
aI81
aI110
asS'/home/tarun/Downloads/garbage_645/GARBAGE/data/Images/2758.jpg'
p935
(lp936
I167
aI204
aI163
aI98
asS'/home/tarun/Downloads/garbage_645/GARBAGE/data/Images/421.jpg'
p937
(lp938
I56
aI205
aI167
aI146
asS'/home/tarun/Downloads/garbage_645/GARBAGE/data/Images/2685.jpg'
p939
(lp940
I132
aI102
aI466
aI98
asS'/home/tarun/Downloads/garbage_645/GARBAGE/data/Images/300.jpg'
p941
(lp942
I100
aI320
aI219
aI90
asS'/home/tarun/Downloads/garbage_645/GARBAGE/data/Images/1530.jpg'
p943
(lp944
I95
aI171
aI234
aI96
asS'/home/tarun/Downloads/garbage_645/GARBAGE/data/Images/82.jpg'
p945
(lp946
I42
aI184
aI174
aI132
asS'/home/tarun/Downloads/garbage_645/GARBAGE/data/Images/63.jpg'
p947
(lp948
I130
aI131
aI350
aI124
asS'/home/tarun/Downloads/garbage_645/GARBAGE/data/Images/2840.jpg'
p949
(lp950
I209
aI188
aI156
aI100
asS'/home/tarun/Downloads/garbage_645/GARBAGE/data/Images/1231.jpg'
p951
(lp952
I64
aI128
aI198
aI191
asS'/home/tarun/Downloads/garbage_645/GARBAGE/data/Images/2509.jpg'
p953
(lp954
I47
aI108
aI129
aI60
asS'/home/tarun/Downloads/garbage_645/GARBAGE/data/Images/1798.jpg'
p955
(lp956
I71
aI160
aI118
aI80
asS'/home/tarun/Downloads/garbage_645/GARBAGE/data/Images/2244.jpg'
p957
(lp958
I125
aI124
aI142
aI70
asS'/home/tarun/Downloads/garbage_645/GARBAGE/data/Images/2285.jpg'
p959
(lp960
I205
aI201
aI125
aI119
asS'/home/tarun/Downloads/garbage_645/GARBAGE/data/Images/54.jpg'
p961
(lp962
I41
aI98
aI129
aI77
asS'/home/tarun/Downloads/garbage_645/GARBAGE/data/Images/255.jpg'
p963
(lp964
I70
aI85
aI176
aI94
asS'/home/tarun/Downloads/garbage_645/GARBAGE/data/Images/709.jpg'
p965
(lp966
I3
aI114
aI307
aI212
asS'/home/tarun/Downloads/garbage_645/GARBAGE/data/Images/2489.jpg'
p967
(lp968
I88
aI318
aI153
aI204
asS'/home/tarun/Downloads/garbage_645/GARBAGE/data/Images/2028.jpg'
p969
(lp970
I113
aI141
aI272
aI155
asS'/home/tarun/Downloads/garbage_645/GARBAGE/data/Images/493.jpg'
p971
(lp972
I148
aI209
aI168
aI135
asS'/home/tarun/Downloads/garbage_645/GARBAGE/data/Images/2065.jpg'
p973
(lp974
I11
aI143
aI303
aI143
asS'/home/tarun/Downloads/garbage_645/GARBAGE/data/Images/146.jpg'
p975
(lp976
I82
aI326
aI244
aI280
asS'/home/tarun/Downloads/garbage_645/GARBAGE/data/Images/2821.jpg'
p977
(lp978
I160
aI154
aI296
aI109
asS'/home/tarun/Downloads/garbage_645/GARBAGE/data/Images/2763.jpg'
p979
(lp980
I62
aI85
aI100
aI120
asS'/home/tarun/Downloads/garbage_645/GARBAGE/data/Images/217.jpg'
p981
(lp982
I134
aI256
aI201
aI94
asS'/home/tarun/Downloads/garbage_645/GARBAGE/data/Images/1233.jpg'
p983
(lp984
I40
aI171
aI215
aI154
asS'/home/tarun/Downloads/garbage_645/GARBAGE/data/Images/2131.jpg'
p985
(lp986
I178
aI132
aI212
aI161
asS'/home/tarun/Downloads/garbage_645/GARBAGE/data/Images/1200.jpg'
p987
(lp988
I128
aI45
aI231
aI122
asS'/home/tarun/Downloads/garbage_645/GARBAGE/data/Images/1694.jpg'
p989
(lp990
I42
aI152
aI255
aI166
asS'/home/tarun/Downloads/garbage_645/GARBAGE/data/Images/622.jpg'
p991
(lp992
I82
aI155
aI356
aI166
asS'/home/tarun/Downloads/garbage_645/GARBAGE/data/Images/2308.jpg'
p993
(lp994
I3
aI85
aI464
aI213
asS'/home/tarun/Downloads/garbage_645/GARBAGE/data/Images/2223.jpg'
p995
(lp996
I108
aI155
aI129
aI95
asS'/home/tarun/Downloads/garbage_645/GARBAGE/data/Images/2421.jpg'
p997
(lp998
I32
aI56
aI534
aI213
asS'/home/tarun/Downloads/garbage_645/GARBAGE/data/Images/211.jpg'
p999
(lp1000
I91
aI195
aI444
aI148
asS'/home/tarun/Downloads/garbage_645/GARBAGE/data/Images/776.jpg'
p1001
(lp1002
I14
aI134
aI393
aI373
asS'/home/tarun/Downloads/garbage_645/GARBAGE/data/Images/2025.jpg'
p1003
(lp1004
I270
aI26
aI306
aI277
asS'/home/tarun/Downloads/garbage_645/GARBAGE/data/Images/2491.jpg'
p1005
(lp1006
I240
aI176
aI102
aI127
asS'/home/tarun/Downloads/garbage_645/GARBAGE/data/Images/1284.jpg'
p1007
(lp1008
I64
aI160
aI139
aI112
asS'/home/tarun/Downloads/garbage_645/GARBAGE/data/Images/2437.jpg'
p1009
(lp1010
I71
aI31
aI327
aI140
asS'/home/tarun/Downloads/garbage_645/GARBAGE/data/Images/1174.jpg'
p1011
(lp1012
I31
aI101
aI141
aI97
asS'/home/tarun/Downloads/garbage_645/GARBAGE/data/Images/728.jpg'
p1013
(lp1014
I186
aI387
aI93
aI84
asS'/home/tarun/Downloads/garbage_645/GARBAGE/data/Images/2273.jpg'
p1015
(lp1016
I20
aI203
aI250
aI212
asS'/home/tarun/Downloads/garbage_645/GARBAGE/data/Images/1842.jpg'
p1017
(lp1018
I71
aI122
aI432
aI157
asS'/home/tarun/Downloads/garbage_645/GARBAGE/data/Images/2468.jpg'
p1019
(lp1020
I211
aI120
aI178
aI119
asS'/home/tarun/Downloads/garbage_645/GARBAGE/data/Images/2768.jpg'
p1021
(lp1022
I48
aI185
aI353
aI101
asS'/home/tarun/Downloads/garbage_645/GARBAGE/data/Images/1169.jpg'
p1023
(lp1024
I129
aI209
aI343
aI119
asS'/home/tarun/Downloads/garbage_645/GARBAGE/data/Images/1304.jpg'
p1025
(lp1026
I32
aI216
aI302
aI188
asS'/home/tarun/Downloads/garbage_645/GARBAGE/data/Images/2917.jpg'
p1027
(lp1028
I45
aI78
aI439
aI196
asS'/home/tarun/Downloads/garbage_645/GARBAGE/data/Images/8.jpg'
p1029
(lp1030
I32
aI227
aI178
aI96
asS'/home/tarun/Downloads/garbage_645/GARBAGE/data/Images/1322.jpg'
p1031
(lp1032
I271
aI197
aI260
aI141
asS'/home/tarun/Downloads/garbage_645/GARBAGE/data/Images/2168.jpg'
p1033
(lp1034
I92
aI92
aI165
aI168
asS'/home/tarun/Downloads/garbage_645/GARBAGE/data/Images/23.jpg'
p1035
(lp1036
I105
aI59
aI219
aI179
asS'/home/tarun/Downloads/garbage_645/GARBAGE/data/Images/2182.jpg'
p1037
(lp1038
I60
aI241
aI224
aI276
asS'/home/tarun/Downloads/garbage_645/GARBAGE/data/Images/2512.jpg'
p1039
(lp1040
I72
aI125
aI198
aI105
asS'/home/tarun/Downloads/garbage_645/GARBAGE/data/Images/1463.jpg'
p1041
(lp1042
I31
aI123
aI200
aI73
asS'/home/tarun/Downloads/garbage_645/GARBAGE/data/Images/864.jpg'
p1043
(lp1044
I71
aI109
aI237
aI173
asS'/home/tarun/Downloads/garbage_645/GARBAGE/data/Images/1013.jpg'
p1045
(lp1046
I82
aI158
aI194
aI85
asS'/home/tarun/Downloads/garbage_645/GARBAGE/data/Images/860.jpg'
p1047
(lp1048
I28
aI48
aI215
aI151
asS'/home/tarun/Downloads/garbage_645/GARBAGE/data/Images/1879.jpg'
p1049
(lp1050
I277
aI170
aI285
aI146
asS'/home/tarun/Downloads/garbage_645/GARBAGE/data/Images/2088.jpg'
p1051
(lp1052
I149
aI56
aI241
aI181
asS'/home/tarun/Downloads/garbage_645/GARBAGE/data/Images/2735.jpg'
p1053
(lp1054
I107
aI90
aI344
aI93
asS'/home/tarun/Downloads/garbage_645/GARBAGE/data/Images/276.jpg'
p1055
(lp1056
I48
aI278
aI265
aI73
asS'/home/tarun/Downloads/garbage_645/GARBAGE/data/Images/2488.jpg'
p1057
(lp1058
I23
aI159
aI176
aI178
asS'/home/tarun/Downloads/garbage_645/GARBAGE/data/Images/2059.jpg'
p1059
(lp1060
I39
aI121
aI275
aI216
asS'/home/tarun/Downloads/garbage_645/GARBAGE/data/Images/928.jpg'
p1061
(lp1062
I137
aI244
aI89
aI63
asS'/home/tarun/Downloads/garbage_645/GARBAGE/data/Images/1613.jpg'
p1063
(lp1064
I55
aI99
aI112
aI121
asS'/home/tarun/Downloads/garbage_645/GARBAGE/data/Images/839.jpg'
p1065
(lp1066
I63
aI138
aI125
aI103
asS'/home/tarun/Downloads/garbage_645/GARBAGE/data/Images/1948.jpg'
p1067
(lp1068
I2
aI172
aI188
aI124
asS'/home/tarun/Downloads/garbage_645/GARBAGE/data/Images/1398.jpg'
p1069
(lp1070
I109
aI75
aI306
aI94
asS'/home/tarun/Downloads/garbage_645/GARBAGE/data/Images/2551.jpg'
p1071
(lp1072
I325
aI194
aI238
aI110
asS'/home/tarun/Downloads/garbage_645/GARBAGE/data/Images/35.jpg'
p1073
(lp1074
I105
aI85
aI265
aI141
asS'/home/tarun/Downloads/garbage_645/GARBAGE/data/Images/601.jpg'
p1075
(lp1076
I55
aI224
aI364
aI189
asS'/home/tarun/Downloads/garbage_645/GARBAGE/data/Images/2256.jpg'
p1077
(lp1078
I19
aI275
aI234
aI196
asS'/home/tarun/Downloads/garbage_645/GARBAGE/data/Images/626.jpg'
p1079
(lp1080
I32
aI183
aI158
aI137
asS'/home/tarun/Downloads/garbage_645/GARBAGE/data/Images/416.jpg'
p1081
(lp1082
I82
aI88
aI290
aI207
asS'/home/tarun/Downloads/garbage_645/GARBAGE/data/Images/2104.jpg'
p1083
(lp1084
I7
aI100
aI191
aI120
asS'/home/tarun/Downloads/garbage_645/GARBAGE/data/Images/534.jpg'
p1085
(lp1086
I80
aI302
aI247
aI234
asS'/home/tarun/Downloads/garbage_645/GARBAGE/data/Images/40.jpg'
p1087
(lp1088
I149
aI159
aI319
aI80
asS'/home/tarun/Downloads/garbage_645/GARBAGE/data/Images/1537.jpg'
p1089
(lp1090
I14
aI388
aI352
aI201
asS'/home/tarun/Downloads/garbage_645/GARBAGE/data/Images/295.jpg'
p1091
(lp1092
I39
aI152
aI138
aI108
asS'/home/tarun/Downloads/garbage_645/GARBAGE/data/Images/2497.jpg'
p1093
(lp1094
I188
aI96
aI254
aI76
asS'/home/tarun/Downloads/garbage_645/GARBAGE/data/Images/1223.jpg'
p1095
(lp1096
I90
aI67
aI157
aI143
asS'/home/tarun/Downloads/garbage_645/GARBAGE/data/Images/1610.jpg'
p1097
(lp1098
I211
aI180
aI257
aI111
asS'/home/tarun/Downloads/garbage_645/GARBAGE/data/Images/2612.jpg'
p1099
(lp1100
I133
aI119
aI316
aI55
asS'/home/tarun/Downloads/garbage_645/GARBAGE/data/Images/481.jpg'
p1101
(lp1102
I185
aI249
aI228
aI99
asS'/home/tarun/Downloads/garbage_645/GARBAGE/data/Images/1004.jpg'
p1103
(lp1104
I85
aI130
aI124
aI111
asS'/home/tarun/Downloads/garbage_645/GARBAGE/data/Images/420.jpg'
p1105
(lp1106
I121
aI121
aI61
aI46
asS'/home/tarun/Downloads/garbage_645/GARBAGE/data/Images/2188.jpg'
p1107
(lp1108
I145
aI100
aI242
aI124
asS'/home/tarun/Downloads/garbage_645/GARBAGE/data/Images/29.jpg'
p1109
(lp1110
I74
aI99
aI221
aI163
asS'/home/tarun/Downloads/garbage_645/GARBAGE/data/Images/2417.jpg'
p1111
(lp1112
I7
aI161
aI125
aI156
asS'/home/tarun/Downloads/garbage_645/GARBAGE/data/Images/1247.jpg'
p1113
(lp1114
I75
aI136
aI127
aI72
asS'/home/tarun/Downloads/garbage_645/GARBAGE/data/Images/2129.jpg'
p1115
(lp1116
I51
aI153
aI133
aI81
asS'/home/tarun/Downloads/garbage_645/GARBAGE/data/Images/26.jpg'
p1117
(lp1118
I195
aI208
aI120
aI68
asS'/home/tarun/Downloads/garbage_645/GARBAGE/data/Images/920.jpg'
p1119
(lp1120
I18
aI339
aI315
aI178
asS'/home/tarun/Downloads/garbage_645/GARBAGE/data/Images/109.jpg'
p1121
(lp1122
I227
aI162
aI71
aI36
asS'/home/tarun/Downloads/garbage_645/GARBAGE/data/Images/1136.jpg'
p1123
(lp1124
I52
aI135
aI495
aI138
asS'/home/tarun/Downloads/garbage_645/GARBAGE/data/Images/731.jpg'
p1125
(lp1126
I101
aI150
aI290
aI172
asS'/home/tarun/Downloads/garbage_645/GARBAGE/data/Images/840.jpg'
p1127
(lp1128
I40
aI151
aI142
aI98
asS'/home/tarun/Downloads/garbage_645/GARBAGE/data/Images/2056.jpg'
p1129
(lp1130
I32
aI117
aI386
aI171
asS'/home/tarun/Downloads/garbage_645/GARBAGE/data/Images/2107.jpg'
p1131
(lp1132
I34
aI315
aI240
aI224
asS'/home/tarun/Downloads/garbage_645/GARBAGE/data/Images/2914.jpg'
p1133
(lp1134
I51
aI96
aI293
aI125
asS'/home/tarun/Downloads/garbage_645/GARBAGE/data/Images/2022.jpg'
p1135
(lp1136
I18
aI313
aI275
aI246
asS'/home/tarun/Downloads/garbage_645/GARBAGE/data/Images/262.jpg'
p1137
(lp1138
I46
aI88
aI394
aI138
asS'/home/tarun/Downloads/garbage_645/GARBAGE/data/Images/740.jpg'
p1139
(lp1140
I57
aI125
aI231
aI151
asS'/home/tarun/Downloads/garbage_645/GARBAGE/data/Images/106.jpg'
p1141
(lp1142
I184
aI121
aI170
aI84
asS'/home/tarun/Downloads/garbage_645/GARBAGE/data/Images/312.jpg'
p1143
(lp1144
I13
aI155
aI456
aI139
asS'/home/tarun/Downloads/garbage_645/GARBAGE/data/Images/1331.jpg'
p1145
(lp1146
I40
aI132
aI121
aI152
asS'/home/tarun/Downloads/garbage_645/GARBAGE/data/Images/330.jpg'
p1147
(lp1148
I51
aI164
aI114
aI87
asS'/home/tarun/Downloads/garbage_645/GARBAGE/data/Images/854.jpg'
p1149
(lp1150
I49
aI164
aI175
aI90
asS'/home/tarun/Downloads/garbage_645/GARBAGE/data/Images/2641.jpg'
p1151
(lp1152
I213
aI70
aI296
aI102
asS'/home/tarun/Downloads/garbage_645/GARBAGE/data/Images/394.jpg'
p1153
(lp1154
I42
aI109
aI503
aI201
asS'/home/tarun/Downloads/garbage_645/GARBAGE/data/Images/2176.jpg'
p1155
(lp1156
I126
aI325
aI114
aI176
asS'/home/tarun/Downloads/garbage_645/GARBAGE/data/Images/729.jpg'
p1157
(lp1158
I21
aI101
aI478
aI242
asS'/home/tarun/Downloads/garbage_645/GARBAGE/data/Images/921.jpg'
p1159
(lp1160
I169
aI127
aI304
aI134
asS'/home/tarun/Downloads/garbage_645/GARBAGE/data/Images/2506.jpg'
p1161
(lp1162
I19
aI309
aI295
aI194
asS'/home/tarun/Downloads/garbage_645/GARBAGE/data/Images/2135.jpg'
p1163
(lp1164
I89
aI339
aI118
aI97
asS'/home/tarun/Downloads/garbage_645/GARBAGE/data/Images/18.jpg'
p1165
(lp1166
I76
aI169
aI273
aI84
asS'/home/tarun/Downloads/garbage_645/GARBAGE/data/Images/293.jpg'
p1167
(lp1168
I25
aI104
aI184
aI125
asS'/home/tarun/Downloads/garbage_645/GARBAGE/data/Images/1389.jpg'
p1169
(lp1170
I41
aI137
aI266
aI112
asS'/home/tarun/Downloads/garbage_645/GARBAGE/data/Images/2020.jpg'
p1171
(lp1172
I1
aI100
aI152
aI130
asS'/home/tarun/Downloads/garbage_645/GARBAGE/data/Images/808.jpg'
p1173
(lp1174
I52
aI244
aI283
aI182
asS'/home/tarun/Downloads/garbage_645/GARBAGE/data/Images/118.jpg'
p1175
(lp1176
I187
aI109
aI179
aI92
asS'/home/tarun/Downloads/garbage_645/GARBAGE/data/Images/548.jpg'
p1177
(lp1178
I114
aI209
aI258
aI119
asS'/home/tarun/Downloads/garbage_645/GARBAGE/data/Images/1678.jpg'
p1179
(lp1180
I74
aI64
aI325
aI229
asS'/home/tarun/Downloads/garbage_645/GARBAGE/data/Images/36.jpg'
p1181
(lp1182
I38
aI38
aI186
aI178
asS'/home/tarun/Downloads/garbage_645/GARBAGE/data/Images/804.jpg'
p1183
(lp1184
I43
aI85
aI182
aI113
asS'/home/tarun/Downloads/garbage_645/GARBAGE/data/Images/71.jpg'
p1185
(lp1186
I73
aI150
aI168
aI82
asS'/home/tarun/Downloads/garbage_645/GARBAGE/data/Images/1447.jpg'
p1187
(lp1188
I279
aI179
aI361
aI107
asS'/home/tarun/Downloads/garbage_645/GARBAGE/data/Images/623.jpg'
p1189
(lp1190
I170
aI135
aI359
aI123
asS'/home/tarun/Downloads/garbage_645/GARBAGE/data/Images/2416.jpg'
p1191
(lp1192
I35
aI56
aI156
aI197
asS'/home/tarun/Downloads/garbage_645/GARBAGE/data/Images/182.jpg'
p1193
(lp1194
I35
aI251
aI315
aI129
asS'/home/tarun/Downloads/garbage_645/GARBAGE/data/Images/2430.jpg'
p1195
(lp1196
I66
aI115
aI138
aI144
asS'/home/tarun/Downloads/garbage_645/GARBAGE/data/Images/1047.jpg'
p1197
(lp1198
I127
aI209
aI107
aI70
asS'/home/tarun/Downloads/garbage_645/GARBAGE/data/Images/1493.jpg'
p1199
(lp1200
I123
aI188
aI388
aI76
asS'/home/tarun/Downloads/garbage_645/GARBAGE/data/Images/1222.jpg'
p1201
(lp1202
I10
aI95
aI214
aI110
asS'/home/tarun/Downloads/garbage_645/GARBAGE/data/Images/2265.jpg'
p1203
(lp1204
I136
aI115
aI215
aI141
asS'/home/tarun/Downloads/garbage_645/GARBAGE/data/Images/2750.jpg'
p1205
(lp1206
I11
aI214
aI466
aI130
asS'/home/tarun/Downloads/garbage_645/GARBAGE/data/Images/895.jpg'
p1207
(lp1208
I101
aI236
aI120
aI100
asS'/home/tarun/Downloads/garbage_645/GARBAGE/data/Images/1471.jpg'
p1209
(lp1210
I7
aI151
aI145
aI87
asS'/home/tarun/Downloads/garbage_645/GARBAGE/data/Images/1805.jpg'
p1211
(lp1212
I1
aI54
aI263
aI195
asS'/home/tarun/Downloads/garbage_645/GARBAGE/data/Images/850.jpg'
p1213
(lp1214
I46
aI326
aI230
aI105
asS'/home/tarun/Downloads/garbage_645/GARBAGE/data/Images/1559.jpg'
p1215
(lp1216
I95
aI376
aI244
aI152
asS'/home/tarun/Downloads/garbage_645/GARBAGE/data/Images/863.jpg'
p1217
(lp1218
I108
aI401
aI221
aI202
asS'/home/tarun/Downloads/garbage_645/GARBAGE/data/Images/2396.jpg'
p1219
(lp1220
I61
aI180
aI429
aI144
asS'/home/tarun/Downloads/garbage_645/GARBAGE/data/Images/2543.jpg'
p1221
(lp1222
I16
aI161
aI298
aI245
asS'/home/tarun/Downloads/garbage_645/GARBAGE/data/Images/2941.jpg'
p1223
(lp1224
I75
aI164
aI425
aI138
asS'/home/tarun/Downloads/garbage_645/GARBAGE/data/Images/1648.jpg'
p1225
(lp1226
I21
aI84
aI154
aI138
asS'/home/tarun/Downloads/garbage_645/GARBAGE/data/Images/1620.jpg'
p1227
(lp1228
I8
aI92
aI460
aI146
asS'/home/tarun/Downloads/garbage_645/GARBAGE/data/Images/2862.jpg'
p1229
(lp1230
I98
aI35
aI230
aI298
asS'/home/tarun/Downloads/garbage_645/GARBAGE/data/Images/472.jpg'
p1231
(lp1232
I105
aI201
aI172
aI76
asS'/home/tarun/Downloads/garbage_645/GARBAGE/data/Images/897.jpg'
p1233
(lp1234
I33
aI128
aI159
aI105
asS'/home/tarun/Downloads/garbage_645/GARBAGE/data/Images/2200.jpg'
p1235
(lp1236
I91
aI231
aI176
aI157
asS'/home/tarun/Downloads/garbage_645/GARBAGE/data/Images/1729.jpg'
p1237
(lp1238
I227
aI180
aI241
aI107
asS'/home/tarun/Downloads/garbage_645/GARBAGE/data/Images/1025.jpg'
p1239
(lp1240
I26
aI97
aI161
aI133
asS'/home/tarun/Downloads/garbage_645/GARBAGE/data/Images/859.jpg'
p1241
(lp1242
I81
aI147
aI154
aI132
asS'/home/tarun/Downloads/garbage_645/GARBAGE/data/Images/188.jpg'
p1243
(lp1244
I83
aI150
aI339
aI129
asS'/home/tarun/Downloads/garbage_645/GARBAGE/data/Images/1368.jpg'
p1245
(lp1246
I25
aI218
aI349
aI79
asS'/home/tarun/Downloads/garbage_645/GARBAGE/data/Images/59.jpg'
p1247
(lp1248
I15
aI119
aI315
aI99
asS'/home/tarun/Downloads/garbage_645/GARBAGE/data/Images/2567.jpg'
p1249
(lp1250
I11
aI146
aI319
aI86
asS'/home/tarun/Downloads/garbage_645/GARBAGE/data/Images/1890.jpg'
p1251
(lp1252
I20
aI53
aI541
aI240
asS'/home/tarun/Downloads/garbage_645/GARBAGE/data/Images/513.jpg'
p1253
(lp1254
I37
aI160
aI200
aI89
asS'/home/tarun/Downloads/garbage_645/GARBAGE/data/Images/749.jpg'
p1255
(lp1256
I90
aI170
aI152
aI65
asS'/home/tarun/Downloads/garbage_645/GARBAGE/data/Images/2225.jpg'
p1257
(lp1258
I238
aI59
aI154
aI225
asS'/home/tarun/Downloads/garbage_645/GARBAGE/data/Images/1966.jpg'
p1259
(lp1260
I115
aI51
aI154
aI95
asS'/home/tarun/Downloads/garbage_645/GARBAGE/data/Images/1827.jpg'
p1261
(lp1262
I72
aI147
aI426
aI71
asS'/home/tarun/Downloads/garbage_645/GARBAGE/data/Images/1082.jpg'
p1263
(lp1264
I72
aI75
aI513
aI198
asS'/home/tarun/Downloads/garbage_645/GARBAGE/data/Images/2852.jpg'
p1265
(lp1266
I14
aI182
aI395
aI145
asS'/home/tarun/Downloads/garbage_645/GARBAGE/data/Images/2952.jpg'
p1267
(lp1268
I143
aI24
aI319
aI174
asS'/home/tarun/Downloads/garbage_645/GARBAGE/data/Images/1693.jpg'
p1269
(lp1270
I81
aI118
aI93
aI128
asS'/home/tarun/Downloads/garbage_645/GARBAGE/data/Images/1083.jpg'
p1271
(lp1272
I62
aI175
aI64
aI55
asS'/home/tarun/Downloads/garbage_645/GARBAGE/data/Images/699.jpg'
p1273
(lp1274
I19
aI153
aI255
aI109
asS'/home/tarun/Downloads/garbage_645/GARBAGE/data/Images/478.jpg'
p1275
(lp1276
I42
aI239
aI176
aI92
asS'/home/tarun/Downloads/garbage_645/GARBAGE/data/Images/2247.jpg'
p1277
(lp1278
I136
aI124
aI183
aI137
asS'/home/tarun/Downloads/garbage_645/GARBAGE/data/Images/787.jpg'
p1279
(lp1280
I141
aI160
aI201
aI183
asS'/home/tarun/Downloads/garbage_645/GARBAGE/data/Images/2035.jpg'
p1281
(lp1282
I171
aI54
aI350
aI224
asS'/home/tarun/Downloads/garbage_645/GARBAGE/data/Images/566.jpg'
p1283
(lp1284
I16
aI289
aI263
aI161
asS'/home/tarun/Downloads/garbage_645/GARBAGE/data/Images/486.jpg'
p1285
(lp1286
I134
aI221
aI306
aI80
asS'/home/tarun/Downloads/garbage_645/GARBAGE/data/Images/2464.jpg'
p1287
(lp1288
I70
aI124
aI147
aI95
asS'/home/tarun/Downloads/garbage_645/GARBAGE/data/Images/311.jpg'
p1289
(lp1290
I213
aI218
aI244
aI85
as.