(dp0
S'crop_000607.png'
p1
(lp2
(I0
I0
I257
I176
tp3
a(I0
I0
I877
I713
tp4
a(I491
I0
I90
I157
tp5
a(I390
I306
I132
I161
tp6
a(I69
I336
I88
I112
tp7
a(I392
I327
I53
I98
tp8
a(I66
I489
I50
I151
tp9
a(I382
I136
I487
I491
tp10
a(I249
I183
I74
I63
tp11
a(I223
I518
I83
I78
tp12
a(I586
I70
I84
I119
tp13
a(I604
I69
I77
I79
tp14
a(I245
I126
I84
I73
tp15
a(I139
I133
I738
I576
tp16
a(I95
I138
I782
I575
tp17
a(I328
I147
I190
I55
tp18
a(I54
I217
I190
I58
tp19
a(I171
I217
I76
I57
tp20
a(I0
I250
I167
I69
tp21
a(I0
I264
I182
I61
tp22
a(I71
I317
I82
I114
tp23
a(I213
I500
I55
I89
tp24
a(I262
I586
I74
I52
tp25
a(I61
I361
I63
I140
tp26
a(I61
I317
I92
I184
tp27
a(I61
I317
I101
I185
tp28
a(I61
I314
I101
I188
tp29
a(I604
I69
I121
I116
tp30
a(I69
I335
I88
I113
tp31
a(I69
I320
I88
I128
tp32
a(I382
I122
I495
I505
tp33
a(I61
I314
I101
I260
tp34
a(I0
I250
I167
I324
tp35
a(I0
I250
I182
I324
tp36
a(I392
I315
I53
I110
tp37
a(I328
I147
I190
I56
tp38
a(I0
I0
I257
I178
tp39
a(I290
I215
I54
I67
tp40
a(I364
I122
I513
I505
tp41
a(I212
I500
I56
I89
tp42
a(I69
I138
I808
I575
tp43
a(I69
I320
I85
I126
tp44
a(I0
I0
I257
I200
tp45
a(I123
I133
I754
I576
tp46
a(I223
I469
I83
I127
tp47
a(I4
I217
I243
I59
tp48
a(I390
I306
I132
I166
tp49
a(I390
I306
I132
I211
tp50
a(I245
I126
I264
I103
tp51
a(I59
I320
I95
I179
tp52
a(I54
I217
I190
I90
tp53
a(I78
I636
I85
I73
tp54
a(I0
I0
I258
I200
tp55
a(I59
I320
I95
I184
tp56
a(I54
I138
I823
I575
tp57
a(I78
I636
I86
I73
tp58
a(I364
I69
I513
I558
tp59
a(I245
I69
I632
I558
tp60
a(I0
I250
I182
I325
tp61
a(I214
I469
I92
I127
tp62
a(I54
I137
I823
I576
tp63
a(I490
I0
I91
I157
tp64
a(I490
I0
I91
I159
tp65
a(I214
I469
I92
I132
tp66
a(I65
I489
I51
I151
tp67
a(I0
I217
I247
I59
tp68
a(I0
I217
I252
I59
tp69
a(I302
I5
I64
I98
tp70
a(I249
I176
I74
I70
tp71
a(I212
I489
I56
I100
tp72
a(I249
I176
I75
I70
tp73
a(I261
I586
I75
I52
tp74
a(I302
I5
I117
I108
tp75
a(I0
I0
I258
I202
tp76
a(I302
I5
I151
I108
tp77
a(I302
I0
I151
I113
tp78
a(I381
I0
I200
I199
tp79
a(I358
I0
I223
I199
tp80
a(I352
I0
I229
I203
tp81
a(I588
I101
I71
I141
tp82
a(I516
I158
I60
I53
tp83
a(I0
I217
I252
I358
tp84
a(I0
I176
I324
I399
tp85
a(I0
I176
I344
I399
tp86
a(I328
I0
I253
I203
tp87
a(I323
I0
I258
I203
tp88
a(I302
I0
I154
I113
tp89
asS'crop001012.png'
p90
(lp91
(I0
I0
I791
I438
tp92
a(I413
I266
I378
I388
tp93
a(I233
I275
I190
I499
tp94
a(I0
I325
I343
I450
tp95
a(I0
I675
I255
I101
tp96
a(I0
I340
I180
I106
tp97
a(I390
I367
I68
I146
tp98
a(I359
I552
I127
I194
tp99
a(I360
I647
I136
I99
tp100
a(I429
I506
I58
I183
tp101
a(I0
I634
I791
I341
tp102
a(I391
I512
I98
I235
tp103
a(I191
I668
I135
I90
tp104
a(I229
I640
I98
I57
tp105
a(I359
I552
I137
I194
tp106
a(I0
I640
I327
I136
tp107
a(I191
I667
I135
I100
tp108
a(I359
I547
I143
I199
tp109
a(I0
I633
I327
I143
tp110
a(I0
I633
I327
I189
tp111
a(I359
I266
I432
I480
tp112
a(I0
I325
I343
I497
tp113
a(I233
I275
I256
I499
tp114
a(I0
I622
I791
I353
tp115
a(I215
I641
I112
I71
tp116
a(I214
I676
I167
I102
tp117
a(I429
I506
I58
I199
tp118
a(I404
I497
I83
I208
tp119
a(I404
I497
I84
I210
tp120
a(I530
I269
I261
I99
tp121
a(I418
I265
I197
I61
tp122
a(I432
I265
I333
I94
tp123
a(I418
I265
I347
I94
tp124
a(I245
I288
I139
I78
tp125
a(I225
I275
I264
I502
tp126
a(I390
I367
I98
I340
tp127
a(I372
I367
I116
I340
tp128
a(I418
I265
I347
I96
tp129
a(I0
I325
I791
I650
tp130
a(I0
I266
I791
I709
tp131
a(I217
I474
I101
I69
tp132
a(I337
I261
I444
I81
tp133
a(I0
I0
I791
I443
tp134
a(I372
I365
I116
I342
tp135
a(I372
I363
I116
I344
tp136
a(I0
I0
I791
I446
tp137
a(I225
I273
I264
I504
tp138
a(I0
I288
I384
I159
tp139
a(I418
I265
I373
I103
tp140
a(I418
I265
I373
I104
tp141
a(I222
I273
I267
I504
tp142
a(I222
I273
I270
I504
tp143
a(I701
I399
I90
I68
tp144
a(I0
I0
I791
I975
tp145
asS'crop001016.png'
p146
(lp147
(I0
I0
I120
I149
tp148
a(I0
I0
I396
I975
tp149
a(I271
I0
I452
I975
tp150
a(I562
I10
I69
I172
tp151
a(I270
I140
I217
I396
tp152
a(I496
I475
I62
I80
tp153
a(I227
I684
I155
I255
tp154
a(I633
I916
I58
I59
tp155
a(I257
I0
I268
I143
tp156
a(I560
I0
I55
I142
tp157
a(I548
I20
I92
I193
tp158
a(I563
I0
I77
I188
tp159
a(I402
I184
I76
I213
tp160
a(I273
I137
I205
I355
tp161
a(I411
I338
I50
I58
tp162
a(I281
I379
I54
I76
tp163
a(I318
I376
I64
I95
tp164
a(I262
I475
I180
I238
tp165
a(I385
I398
I62
I143
tp166
a(I317
I475
I72
I51
tp167
a(I263
I521
I62
I150
tp168
a(I333
I570
I85
I144
tp169
a(I668
I910
I55
I65
tp170
a(I258
I475
I184
I255
tp171
a(I227
I0
I496
I975
tp172
a(I411
I338
I50
I63
tp173
a(I319
I570
I99
I147
tp174
a(I319
I570
I105
I147
tp175
a(I319
I570
I118
I147
tp176
a(I191
I0
I532
I975
tp177
a(I411
I338
I54
I63
tp178
a(I380
I592
I56
I56
tp179
a(I373
I592
I63
I56
tp180
a(I270
I137
I217
I399
tp181
a(I318
I376
I64
I96
tp182
a(I548
I10
I83
I204
tp183
a(I548
I0
I92
I214
tp184
a(I0
I0
I525
I975
tp185
a(I0
I0
I120
I163
tp186
a(I267
I604
I63
I60
tp187
a(I0
I0
I723
I975
tp188
a(I317
I475
I75
I51
tp189
a(I265
I137
I222
I399
tp190
a(I659
I616
I64
I52
tp191
a(I265
I137
I222
I413
tp192
a(I263
I137
I224
I532
tp193
a(I659
I610
I64
I58
tp194
a(I317
I398
I130
I143
tp195
a(I0
I0
I120
I192
tp196
a(I259
I137
I228
I532
tp197
a(I317
I398
I137
I143
tp198
a(I317
I398
I137
I152
tp199
a(I548
I0
I92
I218
tp200
a(I548
I0
I110
I218
tp201
a(I259
I130
I228
I539
tp202
a(I258
I130
I229
I539
tp203
a(I309
I373
I73
I99
tp204
a(I372
I592
I64
I56
tp205
a(I258
I81
I229
I588
tp206
a(I372
I588
I64
I60
tp207
a(I372
I572
I64
I76
tp208
a(I542
I0
I116
I218
tp209
a(I59
I267
I50
I72
tp210
a(I59
I261
I50
I78
tp211
a(I309
I373
I75
I99
tp212
asS'crop_000010.png'
p213
(lp214
(I0
I0
I593
I719
tp215
a(I77
I0
I230
I72
tp216
a(I99
I0
I179
I69
tp217
a(I518
I0
I75
I53
tp218
a(I77
I0
I258
I72
tp219
a(I77
I0
I258
I93
tp220
a(I0
I601
I70
I55
tp221
a(I333
I404
I88
I150
tp222
a(I333
I404
I142
I150
tp223
a(I386
I226
I55
I178
tp224
a(I386
I226
I71
I178
tp225
a(I148
I119
I113
I51
tp226
a(I333
I404
I156
I150
tp227
a(I333
I404
I164
I150
tp228
a(I77
I0
I259
I93
tp229
a(I333
I404
I180
I150
tp230
a(I0
I601
I73
I55
tp231
a(I0
I601
I80
I55
tp232
a(I344
I226
I119
I286
tp233
a(I344
I226
I144
I296
tp234
a(I333
I226
I180
I328
tp235
asS'crop001002.png'
p236
(lp237
(I0
I0
I280
I170
tp238
a(I229
I16
I108
I87
tp239
a(I241
I0
I236
I106
tp240
a(I351
I0
I887
I134
tp241
a(I1102
I35
I136
I63
tp242
a(I1042
I33
I84
I56
tp243
a(I952
I41
I89
I57
tp244
a(I156
I65
I248
I126
tp245
a(I158
I83
I562
I327
tp246
a(I510
I114
I154
I77
tp247
a(I480
I186
I231
I207
tp248
a(I534
I262
I116
I105
tp249
a(I484
I245
I175
I168
tp250
a(I286
I237
I50
I57
tp251
a(I354
I366
I140
I61
tp252
a(I1086
I93
I152
I72
tp253
a(I693
I94
I545
I488
tp254
a(I1131
I413
I107
I60
tp255
a(I1135
I464
I103
I94
tp256
a(I0
I152
I63
I187
tp257
a(I358
I150
I87
I76
tp258
a(I645
I159
I147
I111
tp259
a(I699
I151
I168
I179
tp260
a(I743
I255
I62
I100
tp261
a(I767
I153
I139
I66
tp262
a(I224
I160
I92
I71
tp263
a(I218
I164
I87
I88
tp264
a(I62
I172
I69
I91
tp265
a(I617
I169
I112
I104
tp266
a(I766
I185
I133
I152
tp267
a(I359
I272
I623
I632
tp268
a(I659
I315
I53
I78
tp269
a(I346
I401
I144
I153
tp270
a(I263
I288
I86
I65
tp271
a(I237
I341
I97
I110
tp272
a(I113
I170
I190
I409
tp273
a(I117
I185
I71
I193
tp274
a(I0
I214
I100
I328
tp275
a(I811
I421
I427
I230
tp276
a(I0
I458
I351
I197
tp277
a(I0
I653
I83
I50
tp278
a(I75
I655
I256
I50
tp279
a(I325
I490
I65
I180
tp280
a(I539
I554
I121
I147
tp281
a(I404
I593
I111
I116
tp282
a(I994
I646
I244
I51
tp283
a(I720
I656
I73
I67
tp284
a(I365
I673
I189
I81
tp285
a(I298
I691
I168
I149
tp286
a(I357
I700
I178
I67
tp287
a(I631
I701
I78
I147
tp288
a(I0
I757
I937
I212
tp289
a(I863
I703
I375
I265
tp290
a(I0
I709
I343
I53
tp291
a(I531
I707
I118
I53
tp292
a(I780
I712
I116
I203
tp293
a(I283
I822
I79
I73
tp294
a(I889
I884
I59
I75
tp295
a(I371
I273
I607
I200
tp296
a(I346
I272
I636
I632
tp297
a(I332
I0
I906
I134
tp298
a(I156
I65
I248
I139
tp299
a(I158
I83
I709
I327
tp300
a(I766
I153
I140
I184
tp301
a(I325
I403
I169
I267
tp302
a(I332
I0
I906
I136
tp303
a(I354
I245
I305
I182
tp304
a(I286
I191
I52
I95
tp305
a(I286
I190
I59
I96
tp306
a(I286
I190
I59
I104
tp307
a(I0
I703
I1238
I266
tp308
a(I0
I703
I1238
I272
tp309
a(I617
I94
I621
I488
tp310
a(I658
I153
I248
I228
tp311
a(I286
I156
I114
I138
tp312
a(I286
I150
I159
I144
tp313
a(I158
I83
I709
I347
tp314
a(I286
I126
I174
I168
tp315
a(I332
I0
I906
I137
tp316
a(I158
I83
I718
I347
tp317
a(I0
I709
I343
I59
tp318
a(I158
I83
I718
I366
tp319
a(I224
I160
I110
I71
tp320
a(I323
I403
I171
I269
tp321
a(I952
I39
I95
I59
tp322
a(I354
I245
I314
I182
tp323
a(I113
I83
I763
I496
tp324
a(I113
I83
I1125
I499
tp325
a(I371
I273
I607
I255
tp326
a(I708
I710
I167
I187
tp327
a(I346
I272
I637
I632
tp328
a(I867
I514
I85
I70
tp329
a(I156
I57
I248
I147
tp330
a(I285
I126
I175
I183
tp331
a(I346
I245
I637
I659
tp332
a(I371
I259
I615
I269
tp333
a(I87
I94
I204
I75
tp334
a(I371
I227
I615
I301
tp335
a(I156
I57
I248
I157
tp336
a(I99
I83
I1139
I499
tp337
a(I711
I706
I78
I193
tp338
a(I531
I707
I119
I53
tp339
a(I156
I57
I301
I157
tp340
a(I229
I0
I248
I106
tp341
a(I156
I0
I321
I214
tp342
a(I154
I0
I323
I214
tp343
a(I154
I0
I323
I231
tp344
a(I491
I707
I159
I53
tp345
a(I0
I0
I280
I191
tp346
a(I80
I654
I386
I186
tp347
a(I35
I121
I81
I81
tp348
a(I583
I435
I72
I62
tp349
a(I1139
I209
I73
I83
tp350
a(I425
I594
I67
I100
tp351
a(I680
I710
I195
I187
tp352
a(I323
I403
I172
I269
tp353
a(I76
I83
I1162
I512
tp354
a(I236
I379
I103
I79
tp355
a(I43
I655
I319
I51
tp356
a(I539
I551
I122
I155
tp357
a(I76
I83
I1162
I549
tp358
a(I0
I458
I352
I197
tp359
a(I323
I227
I663
I445
tp360
a(I87
I94
I204
I91
tp361
a(I762
I441
I66
I134
tp362
a(I0
I123
I82
I216
tp363
a(I340
I717
I230
I91
tp364
a(I340
I707
I310
I101
tp365
a(I80
I654
I386
I241
tp366
a(I80
I639
I386
I256
tp367
a(I663
I82
I251
I91
tp368
a(I663
I80
I251
I93
tp369
a(I397
I549
I267
I205
tp370
a(I952
I39
I95
I76
tp371
a(I910
I39
I137
I76
tp372
a(I0
I700
I1238
I275
tp373
a(I154
I0
I444
I231
tp374
a(I154
I0
I468
I231
tp375
a(I43
I227
I943
I479
tp376
a(I43
I223
I943
I483
tp377
a(I346
I245
I638
I659
tp378
a(I680
I710
I198
I187
tp379
a(I910
I39
I170
I76
tp380
a(I95
I166
I57
I62
tp381
a(I551
I516
I327
I381
tp382
a(I344
I245
I640
I659
tp383
a(I60
I172
I71
I91
tp384
a(I309
I350
I50
I140
tp385
a(I0
I458
I357
I197
tp386
a(I0
I0
I280
I339
tp387
a(I60
I144
I106
I119
tp388
a(I60
I144
I106
I195
tp389
a(I0
I0
I1238
I632
tp390
a(I697
I150
I74
I73
tp391
a(I381
I549
I283
I206
tp392
a(I1042
I33
I89
I67
tp393
a(I910
I33
I221
I82
tp394
a(I910
I33
I328
I82
tp395
a(I381
I520
I283
I235
tp396
a(I780
I707
I123
I208
tp397
a(I620
I80
I294
I93
tp398
a(I620
I72
I294
I101
tp399
a(I0
I639
I466
I256
tp400
a(I697
I145
I116
I78
tp401
a(I551
I516
I340
I393
tp402
a(I551
I516
I383
I393
tp403
a(I780
I707
I168
I252
tp404
a(I690
I707
I258
I252
tp405
a(I664
I707
I284
I252
tp406
a(I664
I707
I294
I252
tp407
a(I510
I114
I158
I77
tp408
a(I494
I114
I174
I77
tp409
a(I494
I96
I174
I95
tp410
a(I0
I520
I664
I375
tp411
a(I154
I0
I468
I235
tp412
a(I87
I0
I535
I235
tp413
a(I35
I0
I587
I235
tp414
a(I507
I271
I134
I99
tp415
a(I484
I270
I295
I128
tp416
a(I627
I218
I69
I64
tp417
a(I236
I379
I110
I79
tp418
a(I0
I352
I357
I303
tp419
a(I35
I0
I633
I235
tp420
a(I35
I0
I879
I235
tp421
a(I545
I516
I389
I393
tp422
a(I398
I0
I98
I100
tp423
a(I340
I706
I310
I102
tp424
a(I0
I214
I100
I329
tp425
a(I664
I656
I294
I303
tp426
a(I0
I341
I357
I314
tp427
a(I398
I0
I109
I100
tp428
a(I789
I33
I449
I82
tp429
a(I789
I33
I449
I106
tp430
a(I0
I0
I1238
I706
tp431
a(I0
I0
I1238
I895
tp432
a(I0
I341
I359
I314
tp433
a(I213
I116
I237
I56
tp434
a(I627
I217
I69
I65
tp435
a(I993
I646
I245
I51
tp436
a(I0
I498
I71
I50
tp437
a(I344
I245
I640
I664
tp438
a(I810
I421
I428
I231
tp439
a(I398
I0
I110
I100
tp440
a(I789
I32
I449
I107
tp441
a(I344
I216
I640
I693
tp442
a(I0
I0
I1238
I909
tp443
a(I0
I0
I1238
I959
tp444
a(I35
I0
I879
I245
tp445
a(I35
I0
I879
I339
tp446
a(I767
I451
I471
I256
tp447
a(I767
I451
I471
I257
tp448
a(I919
I644
I319
I53
tp449
a(I834
I644
I404
I53
tp450
a(I831
I644
I407
I53
tp451
a(I34
I0
I880
I339
tp452
a(I0
I698
I1238
I277
tp453
a(I810
I420
I428
I232
tp454
a(I0
I339
I359
I316
tp455
a(I235
I379
I111
I107
tp456
a(I659
I315
I53
I79
tp457
a(I0
I0
I1238
I975
tp458
asS'crop001004.png'
p459
(lp460
(I29
I0
I216
I193
tp461
a(I0
I0
I384
I625
tp462
a(I0
I227
I385
I399
tp463
a(I0
I522
I68
I74
tp464
a(I416
I63
I223
I204
tp465
a(I397
I140
I99
I100
tp466
a(I310
I201
I245
I418
tp467
a(I206
I273
I152
I127
tp468
a(I269
I0
I346
I234
tp469
a(I287
I0
I80
I71
tp470
a(I615
I0
I98
I105
tp471
a(I623
I95
I64
I89
tp472
a(I678
I0
I156
I210
tp473
a(I421
I54
I163
I55
tp474
a(I40
I154
I60
I54
tp475
a(I766
I168
I68
I57
tp476
a(I672
I171
I144
I181
tp477
a(I609
I187
I54
I63
tp478
a(I609
I223
I63
I50
tp479
a(I565
I249
I101
I117
tp480
a(I574
I266
I131
I193
tp481
a(I0
I245
I385
I388
tp482
a(I300
I207
I280
I520
tp483
a(I635
I844
I68
I58
tp484
a(I0
I638
I695
I207
tp485
a(I14
I823
I620
I77
tp486
a(I42
I625
I291
I148
tp487
a(I0
I629
I325
I143
tp488
a(I542
I217
I51
I74
tp489
a(I188
I271
I76
I55
tp490
a(I699
I247
I135
I176
tp491
a(I677
I408
I157
I567
tp492
a(I222
I297
I82
I67
tp493
a(I738
I306
I96
I89
tp494
a(I212
I330
I99
I68
tp495
a(I734
I397
I73
I98
tp496
a(I324
I439
I57
I59
tp497
a(I567
I421
I74
I152
tp498
a(I572
I469
I125
I183
tp499
a(I617
I496
I121
I278
tp500
a(I545
I611
I52
I140
tp501
a(I312
I497
I69
I99
tp502
a(I618
I735
I83
I68
tp503
a(I0
I887
I688
I88
tp504
a(I40
I153
I60
I55
tp505
a(I39
I133
I75
I87
tp506
a(I40
I129
I78
I79
tp507
a(I286
I0
I80
I72
tp508
a(I678
I0
I156
I219
tp509
a(I409
I7
I206
I131
tp510
a(I32
I133
I82
I87
tp511
a(I40
I129
I78
I80
tp512
a(I212
I330
I99
I79
tp513
a(I588
I180
I100
I53
tp514
a(I588
I131
I100
I102
tp515
a(I269
I0
I346
I235
tp516
a(I0
I0
I580
I727
tp517
a(I410
I54
I174
I84
tp518
a(I286
I0
I80
I113
tp519
a(I410
I54
I200
I84
tp520
a(I32
I129
I86
I91
tp521
a(I406
I99
I91
I136
tp522
a(I321
I439
I60
I59
tp523
a(I416
I63
I247
I204
tp524
a(I584
I131
I104
I102
tp525
a(I319
I439
I62
I59
tp526
a(I179
I267
I179
I133
tp527
a(I310
I497
I71
I99
tp528
a(I584
I131
I104
I111
tp529
a(I165
I271
I99
I64
tp530
a(I165
I271
I99
I121
tp531
a(I410
I54
I212
I84
tp532
a(I10
I625
I323
I160
tp533
a(I220
I409
I51
I56
tp534
a(I212
I297
I99
I112
tp535
a(I211
I297
I100
I112
tp536
a(I319
I410
I62
I88
tp537
a(I319
I406
I62
I92
tp538
a(I165
I271
I146
I138
tp539
a(I542
I217
I51
I100
tp540
a(I586
I748
I103
I56
tp541
a(I220
I406
I51
I59
tp542
a(I774
I410
I60
I59
tp543
a(I32
I128
I86
I92
tp544
a(I482
I249
I78
I73
tp545
a(I416
I63
I247
I259
tp546
a(I678
I0
I156
I225
tp547
a(I0
I537
I695
I308
tp548
a(I0
I196
I65
I55
tp549
a(I0
I197
I385
I429
tp550
a(I2
I718
I272
I56
tp551
a(I0
I196
I92
I66
tp552
a(I565
I249
I113
I117
tp553
a(I565
I222
I135
I144
tp554
a(I0
I823
I634
I77
tp555
a(I592
I0
I121
I105
tp556
a(I538
I642
I55
I123
tp557
a(I702
I708
I83
I185
tp558
a(I0
I245
I385
I540
tp559
a(I697
I247
I137
I204
tp560
a(I572
I469
I166
I305
tp561
a(I406
I56
I214
I179
tp562
a(I592
I0
I242
I225
tp563
a(I696
I708
I89
I185
tp564
a(I0
I421
I695
I424
tp565
a(I0
I363
I695
I482
tp566
a(I0
I358
I695
I487
tp567
a(I0
I245
I405
I540
tp568
a(I0
I823
I635
I77
tp569
a(I5
I728
I283
I89
tp570
a(I5
I722
I283
I95
tp571
a(I623
I95
I189
I89
tp572
a(I572
I469
I166
I306
tp573
a(I22
I128
I96
I112
tp574
a(I410
I0
I424
I225
tp575
a(I0
I0
I580
I739
tp576
a(I5
I722
I283
I103
tp577
a(I179
I267
I179
I142
tp578
a(I179
I267
I179
I144
tp579
a(I0
I0
I92
I262
tp580
a(I572
I469
I166
I307
tp581
a(I179
I267
I179
I166
tp582
a(I0
I0
I580
I785
tp583
a(I406
I56
I214
I187
tp584
a(I179
I267
I180
I166
tp585
a(I538
I212
I162
I154
tp586
a(I538
I212
I167
I247
tp587
a(I584
I95
I228
I147
tp588
a(I584
I95
I228
I178
tp589
a(I578
I95
I234
I178
tp590
a(I0
I0
I593
I785
tp591
a(I405
I56
I215
I187
tp592
a(I454
I229
I97
I81
tp593
a(I572
I469
I167
I307
tp594
a(I570
I95
I242
I178
tp595
a(I572
I469
I167
I308
tp596
a(I586
I748
I103
I69
tp597
a(I734
I397
I79
I98
tp598
a(I410
I0
I424
I227
tp599
a(I410
I0
I424
I459
tp600
a(I29
I0
I216
I222
tp601
a(I397
I139
I99
I101
tp602
a(I672
I171
I162
I181
tp603
a(I572
I468
I167
I309
tp604
a(I570
I94
I242
I179
tp605
a(I5
I722
I287
I103
tp606
a(I618
I735
I83
I69
tp607
a(I405
I63
I258
I259
tp608
a(I0
I328
I695
I517
tp609
a(I0
I183
I385
I443
tp610
a(I677
I247
I157
I728
tp611
a(I0
I328
I696
I517
tp612
a(I29
I0
I239
I222
tp613
a(I572
I468
I167
I336
tp614
a(I21
I192
I59
I53
tp615
a(I21
I192
I90
I53
tp616
a(I21
I184
I90
I61
tp617
a(I0
I183
I413
I443
tp618
a(I469
I642
I124
I123
tp619
a(I405
I63
I258
I267
tp620
a(I696
I708
I108
I185
tp621
a(I21
I151
I90
I94
tp622
a(I29
I0
I239
I233
tp623
a(I269
I0
I346
I317
tp624
a(I165
I271
I146
I140
tp625
a(I672
I171
I162
I224
tp626
a(I672
I144
I162
I251
tp627
a(I672
I135
I162
I260
tp628
a(I672
I135
I162
I334
tp629
a(I672
I135
I162
I336
tp630
a(I454
I229
I98
I81
tp631
a(I635
I824
I68
I78
tp632
a(I0
I0
I834
I845
tp633
a(I632
I824
I71
I78
tp634
a(I0
I823
I703
I79
tp635
a(I454
I229
I115
I111
tp636
a(I472
I714
I217
I103
tp637
a(I471
I708
I218
I109
tp638
a(I0
I822
I703
I80
tp639
a(I608
I247
I226
I728
tp640
a(I733
I397
I80
I98
tp641
a(I612
I903
I87
I64
tp642
a(I287
I0
I81
I72
tp643
a(I733
I396
I80
I99
tp644
a(I672
I135
I162
I338
tp645
a(I0
I822
I703
I81
tp646
a(I0
I0
I614
I785
tp647
a(I601
I903
I98
I64
tp648
a(I501
I897
I198
I70
tp649
a(I773
I398
I61
I71
tp650
a(I0
I820
I703
I83
tp651
a(I0
I820
I703
I89
tp652
a(I287
I0
I85
I72
tp653
a(I0
I820
I703
I147
tp654
a(I0
I0
I739
I804
tp655
a(I0
I0
I834
I975
tp656
a(I22
I127
I96
I113
tp657
a(I22
I127
I97
I113
tp658
a(I310
I473
I71
I123
tp659
a(I310
I406
I71
I190
tp660
a(I267
I0
I348
I317
tp661
asS'crop001006.png'
p662
(lp663
(I0
I0
I90
I87
tp664
a(I11
I0
I595
I295
tp665
a(I237
I0
I59
I57
tp666
a(I552
I0
I358
I136
tp667
a(I672
I69
I106
I64
tp668
a(I610
I81
I59
I53
tp669
a(I884
I0
I85
I89
tp670
a(I415
I104
I123
I81
tp671
a(I480
I105
I130
I127
tp672
a(I541
I112
I127
I79
tp673
a(I663
I129
I163
I147
tp674
a(I685
I154
I131
I59
tp675
a(I427
I143
I52
I56
tp676
a(I535
I147
I128
I67
tp677
a(I539
I161
I180
I60
tp678
a(I905
I87
I64
I66
tp679
a(I0
I88
I130
I80
tp680
a(I626
I109
I343
I399
tp681
a(I677
I399
I65
I182
tp682
a(I371
I434
I598
I415
tp683
a(I896
I476
I73
I100
tp684
a(I374
I671
I134
I95
tp685
a(I448
I832
I521
I79
tp686
a(I139
I115
I70
I78
tp687
a(I834
I119
I97
I85
tp688
a(I292
I147
I70
I109
tp689
a(I318
I187
I58
I62
tp690
a(I5
I152
I193
I132
tp691
a(I29
I223
I211
I219
tp692
a(I62
I238
I177
I202
tp693
a(I403
I182
I316
I498
tp694
a(I329
I204
I132
I211
tp695
a(I370
I196
I74
I52
tp696
a(I413
I214
I81
I232
tp697
a(I23
I269
I412
I706
tp698
a(I176
I286
I72
I130
tp699
a(I792
I310
I60
I55
tp700
a(I61
I355
I64
I87
tp701
a(I644
I373
I118
I207
tp702
a(I733
I388
I145
I112
tp703
a(I0
I446
I64
I245
tp704
a(I539
I531
I56
I135
tp705
a(I0
I616
I140
I359
tp706
a(I374
I631
I115
I130
tp707
a(I140
I736
I50
I84
tp708
a(I660
I773
I202
I106
tp709
a(I781
I778
I59
I69
tp710
a(I656
I793
I260
I107
tp711
a(I657
I855
I290
I51
tp712
a(I345
I830
I624
I145
tp713
a(I222
I888
I59
I87
tp714
a(I624
I221
I99
I121
tp715
a(I696
I360
I80
I81
tp716
a(I624
I221
I106
I121
tp717
a(I623
I221
I107
I121
tp718
a(I622
I221
I108
I121
tp719
a(I682
I360
I94
I81
tp720
a(I626
I109
I343
I471
tp721
a(I23
I204
I438
I771
tp722
a(I539
I161
I206
I77
tp723
a(I622
I221
I108
I124
tp724
a(I774
I310
I78
I89
tp725
a(I371
I182
I598
I667
tp726
a(I685
I154
I132
I59
tp727
a(I622
I214
I108
I131
tp728
a(I663
I127
I165
I149
tp729
a(I677
I399
I83
I182
tp730
a(I0
I0
I93
I87
tp731
a(I660
I773
I260
I106
tp732
a(I62
I137
I195
I303
tp733
a(I473
I225
I54
I90
tp734
a(I622
I208
I124
I137
tp735
a(I539
I161
I207
I184
tp736
a(I292
I147
I79
I109
tp737
a(I663
I122
I210
I154
tp738
a(I371
I182
I598
I671
tp739
a(I415
I104
I123
I87
tp740
a(I286
I260
I94
I87
tp741
a(I11
I0
I652
I295
tp742
a(I11
I0
I735
I345
tp743
a(I366
I778
I318
I60
tp744
a(I774
I310
I81
I89
tp745
a(I11
I0
I735
I440
tp746
a(I371
I109
I598
I744
tp747
a(I770
I310
I85
I89
tp748
a(I32
I343
I222
I108
tp749
a(I30
I343
I224
I262
tp750
a(I704
I772
I136
I75
tp751
a(I5
I137
I237
I147
tp752
a(I669
I69
I109
I64
tp753
a(I36
I632
I70
I166
tp754
a(I650
I793
I266
I107
tp755
a(I374
I671
I134
I102
tp756
a(I413
I214
I114
I232
tp757
a(I653
I122
I220
I154
tp758
a(I121
I281
I146
I161
tp759
a(I884
I0
I85
I104
tp760
a(I490
I582
I50
I104
tp761
a(I0
I0
I97
I87
tp762
a(I0
I0
I97
I90
tp763
a(I11
I0
I741
I440
tp764
a(I448
I793
I521
I118
tp765
a(I440
I793
I529
I118
tp766
a(I660
I772
I260
I107
tp767
a(I371
I109
I598
I770
tp768
a(I480
I105
I130
I128
tp769
a(I30
I343
I228
I262
tp770
a(I30
I281
I237
I324
tp771
a(I480
I105
I188
I128
tp772
a(I834
I105
I135
I99
tp773
a(I36
I632
I86
I166
tp774
a(I0
I304
I262
I179
tp775
a(I5
I0
I747
I440
tp776
a(I480
I105
I393
I171
tp777
a(I488
I719
I212
I65
tp778
a(I0
I272
I262
I211
tp779
a(I770
I310
I88
I89
tp780
a(I61
I355
I71
I87
tp781
a(I480
I98
I393
I178
tp782
a(I371
I81
I598
I798
tp783
a(I884
I476
I85
I115
tp784
a(I367
I209
I160
I237
tp785
a(I60
I354
I72
I88
tp786
a(I480
I98
I433
I178
tp787
a(I138
I115
I57
I96
tp788
a(I374
I582
I166
I191
tp789
a(I374
I508
I166
I265
tp790
a(I367
I209
I160
I239
tp791
a(I0
I88
I130
I143
tp792
a(I669
I69
I138
I64
tp793
a(I902
I843
I67
I67
tp794
a(I480
I98
I489
I178
tp795
a(I367
I81
I602
I798
tp796
a(I622
I233
I68
I95
tp797
a(I5
I0
I771
I440
tp798
a(I23
I81
I946
I894
tp799
a(I480
I0
I489
I276
tp800
a(I0
I0
I97
I108
tp801
a(I0
I81
I969
I894
tp802
a(I440
I791
I529
I120
tp803
a(I5
I0
I964
I440
tp804
a(I27
I632
I95
I166
tp805
a(I0
I0
I100
I108
tp806
a(I685
I154
I132
I62
tp807
a(I669
I69
I138
I65
tp808
a(I130
I115
I65
I96
tp809
a(I330
I200
I197
I248
tp810
a(I116
I822
I55
I153
tp811
a(I6
I153
I89
I72
tp812
a(I6
I145
I97
I80
tp813
a(I0
I272
I264
I211
tp814
a(I222
I826
I61
I149
tp815
a(I374
I508
I169
I265
tp816
a(I0
I270
I285
I213
tp817
a(I286
I200
I241
I248
tp818
a(I0
I0
I969
I440
tp819
a(I365
I778
I319
I60
tp820
a(I0
I446
I64
I247
tp821
a(I0
I0
I969
I442
tp822
a(I131
I736
I59
I116
tp823
a(I0
I0
I100
I111
tp824
a(I286
I200
I255
I248
tp825
a(I286
I200
I262
I248
tp826
a(I286
I200
I264
I248
tp827
a(I221
I826
I62
I149
tp828
a(I622
I233
I68
I96
tp829
a(I622
I233
I68
I100
tp830
a(I622
I233
I68
I111
tp831
a(I685
I154
I133
I62
tp832
a(I0
I616
I175
I359
tp833
a(I374
I508
I252
I265
tp834
a(I374
I508
I253
I265
tp835
a(I622
I207
I94
I137
tp836
a(I622
I196
I95
I148
tp837
a(I0
I446
I65
I247
tp838
a(I0
I445
I65
I248
tp839
a(I345
I791
I624
I184
tp840
a(I0
I0
I969
I975
tp841
a(I116
I820
I56
I155
tp842
asS'crop001007.png'
p843
(lp844
(I0
I0
I192
I130
tp845
a(I223
I0
I167
I72
tp846
a(I262
I10
I136
I62
tp847
a(I1131
I2
I140
I71
tp848
a(I1127
I27
I103
I137
tp849
a(I1117
I140
I153
I97
tp850
a(I1190
I23
I81
I136
tp851
a(I211
I29
I979
I207
tp852
a(I147
I54
I68
I335
tp853
a(I4
I63
I197
I159
tp854
a(I206
I106
I425
I113
tp855
a(I212
I130
I579
I148
tp856
a(I742
I156
I256
I258
tp857
a(I0
I117
I109
I107
tp858
a(I0
I132
I792
I634
tp859
a(I654
I203
I87
I106
tp860
a(I558
I276
I164
I418
tp861
a(I487
I278
I114
I105
tp862
a(I522
I399
I79
I321
tp863
a(I696
I426
I105
I318
tp864
a(I510
I475
I105
I276
tp865
a(I635
I678
I169
I88
tp866
a(I667
I284
I59
I205
tp867
a(I567
I531
I56
I186
tp868
a(I1096
I142
I158
I178
tp869
a(I1115
I148
I120
I85
tp870
a(I698
I162
I101
I55
tp871
a(I0
I174
I109
I93
tp872
a(I805
I181
I67
I52
tp873
a(I666
I196
I84
I99
tp874
a(I120
I202
I83
I95
tp875
a(I31
I233
I114
I59
tp876
a(I427
I203
I70
I74
tp877
a(I611
I237
I57
I87
tp878
a(I294
I230
I108
I112
tp879
a(I1002
I235
I98
I69
tp880
a(I1004
I278
I80
I55
tp881
a(I284
I237
I65
I68
tp882
a(I236
I302
I166
I384
tp883
a(I235
I403
I66
I227
tp884
a(I984
I247
I287
I308
tp885
a(I388
I288
I116
I390
tp886
a(I459
I284
I65
I146
tp887
a(I418
I297
I57
I120
tp888
a(I434
I423
I77
I300
tp889
a(I929
I291
I52
I82
tp890
a(I408
I294
I106
I89
tp891
a(I772
I351
I114
I183
tp892
a(I779
I527
I113
I226
tp893
a(I752
I338
I73
I68
tp894
a(I883
I351
I253
I247
tp895
a(I915
I593
I83
I130
tp896
a(I1006
I590
I71
I172
tp897
a(I372
I414
I91
I325
tp898
a(I435
I424
I104
I299
tp899
a(I880
I503
I53
I255
tp900
a(I1066
I530
I72
I236
tp901
a(I1135
I541
I136
I225
tp902
a(I910
I713
I50
I53
tp903
a(I952
I597
I87
I169
tp904
a(I831
I655
I75
I111
tp905
a(I449
I675
I56
I51
tp906
a(I622
I686
I114
I80
tp907
a(I1066
I530
I205
I236
tp908
a(I124
I130
I667
I336
tp909
a(I124
I130
I668
I336
tp910
a(I1190
I23
I81
I182
tp911
a(I124
I130
I874
I336
tp912
a(I522
I399
I101
I321
tp913
a(I0
I109
I935
I657
tp914
a(I211
I29
I979
I277
tp915
a(I4
I30
I308
I192
tp916
a(I4
I30
I308
I267
tp917
a(I4
I29
I1186
I277
tp918
a(I1002
I233
I101
I71
tp919
a(I660
I196
I90
I99
tp920
a(I1115
I23
I156
I210
tp921
a(I206
I106
I449
I113
tp922
a(I4
I29
I1186
I307
tp923
a(I783
I171
I89
I62
tp924
a(I1113
I23
I158
I210
tp925
a(I206
I106
I461
I113
tp926
a(I1002
I233
I101
I82
tp927
a(I992
I350
I119
I105
tp928
a(I783
I171
I94
I62
tp929
a(I0
I109
I998
I657
tp930
a(I660
I196
I90
I102
tp931
a(I363
I414
I100
I325
tp932
a(I388
I288
I127
I390
tp933
a(I984
I247
I287
I338
tp934
a(I459
I284
I91
I150
tp935
a(I1075
I280
I180
I56
tp936
a(I772
I351
I120
I402
tp937
a(I698
I162
I179
I71
tp938
a(I297
I249
I54
I55
tp939
a(I660
I193
I92
I105
tp940
a(I206
I106
I461
I115
tp941
a(I0
I109
I1271
I657
tp942
a(I408
I294
I135
I109
tp943
a(I206
I106
I461
I119
tp944
a(I625
I678
I179
I88
tp945
a(I914
I593
I84
I132
tp946
a(I293
I249
I58
I61
tp947
a(I418
I284
I132
I150
tp948
a(I667
I279
I125
I217
tp949
a(I236
I249
I166
I437
tp950
a(I408
I289
I165
I114
tp951
a(I892
I216
I69
I55
tp952
a(I197
I567
I67
I88
tp953
a(I4
I23
I1267
I313
tp954
a(I510
I475
I109
I276
tp955
a(I0
I117
I109
I108
tp956
a(I667
I276
I171
I220
tp957
a(I408
I253
I210
I150
tp958
a(I1117
I27
I113
I137
tp959
a(I698
I162
I188
I71
tp960
a(I664
I276
I174
I220
tp961
a(I4
I23
I1267
I314
tp962
a(I587
I147
I84
I64
tp963
a(I521
I332
I72
I144
tp964
a(I875
I351
I261
I247
tp965
a(I0
I174
I109
I102
tp966
a(I1006
I590
I71
I176
tp967
a(I664
I276
I180
I220
tp968
a(I124
I54
I91
I335
tp969
a(I96
I54
I119
I335
tp970
a(I30
I54
I185
I335
tp971
a(I31
I185
I171
I111
tp972
a(I31
I185
I171
I122
tp973
a(I587
I147
I89
I64
tp974
a(I232
I423
I67
I223
tp975
a(I418
I284
I132
I156
tp976
a(I206
I106
I461
I171
tp977
a(I660
I162
I226
I136
tp978
a(I206
I106
I461
I197
tp979
a(I510
I463
I109
I288
tp980
a(I1183
I76
I88
I133
tp981
a(I187
I565
I77
I90
tp982
a(I664
I276
I180
I221
tp983
a(I587
I143
I89
I68
tp984
a(I255
I10
I143
I62
tp985
a(I510
I332
I109
I419
tp986
a(I418
I283
I132
I157
tp987
a(I886
I468
I52
I79
tp988
a(I886
I454
I52
I93
tp989
a(I236
I249
I166
I439
tp990
a(I1006
I590
I72
I176
tp991
a(I664
I274
I275
I223
tp992
a(I664
I274
I278
I223
tp993
a(I223
I0
I175
I72
tp994
a(I730
I351
I162
I402
tp995
a(I464
I281
I70
I88
tp996
a(I952
I596
I87
I170
tp997
a(I831
I503
I102
I263
tp998
a(I30
I54
I214
I335
tp999
a(I872
I447
I66
I100
tp1000
a(I4
I23
I1267
I360
tp1001
a(I4
I22
I1267
I361
tp1002
a(I235
I249
I167
I439
tp1003
a(I1117
I26
I113
I138
tp1004
a(I730
I351
I177
I402
tp1005
a(I31
I185
I185
I467
tp1006
a(I31
I185
I233
I470
tp1007
a(I31
I185
I268
I470
tp1008
a(I0
I117
I299
I538
tp1009
a(I0
I54
I299
I601
tp1010
a(I664
I274
I278
I252
tp1011
a(I664
I274
I278
I303
tp1012
a(I892
I210
I69
I61
tp1013
a(I929
I291
I52
I85
tp1014
a(I1049
I280
I206
I56
tp1015
a(I274
I695
I127
I53
tp1016
a(I294
I230
I108
I113
tp1017
a(I284
I237
I65
I75
tp1018
a(I620
I686
I116
I80
tp1019
a(I418
I283
I132
I440
tp1020
a(I274
I695
I152
I53
tp1021
a(I274
I695
I179
I53
tp1022
a(I274
I695
I182
I53
tp1023
a(I0
I22
I1271
I361
tp1024
a(I981
I286
I130
I169
tp1025
a(I981
I280
I274
I175
tp1026
a(I510
I332
I114
I419
tp1027
a(I558
I224
I164
I470
tp1028
a(I235
I249
I175
I439
tp1029
a(I235
I249
I177
I439
tp1030
a(I625
I678
I185
I88
tp1031
a(I892
I210
I73
I61
tp1032
a(I831
I490
I104
I276
tp1033
a(I929
I205
I82
I171
tp1034
a(I929
I205
I91
I171
tp1035
a(I664
I274
I278
I398
tp1036
a(I388
I283
I162
I440
tp1037
a(I387
I283
I163
I440
tp1038
a(I274
I695
I242
I53
tp1039
a(I273
I695
I243
I53
tp1040
a(I0
I174
I109
I105
tp1041
a(I872
I447
I66
I156
tp1042
a(I1090
I142
I164
I193
tp1043
a(I294
I230
I108
I123
tp1044
a(I388
I287
I127
I391
tp1045
a(I235
I249
I177
I471
tp1046
a(I612
I686
I124
I80
tp1047
a(I612
I676
I124
I90
tp1048
a(I556
I374
I86
I135
tp1049
a(I235
I249
I229
I471
tp1050
a(I0
I22
I1271
I744
tp1051
a(I625
I672
I185
I94
tp1052
a(I235
I249
I256
I471
tp1053
a(I435
I332
I189
I419
tp1054
a(I430
I332
I194
I419
tp1055
a(I430
I332
I306
I434
tp1056
a(I1117
I24
I113
I140
tp1057
a(I1117
I140
I153
I108
tp1058
a(I1117
I24
I153
I224
tp1059
a(I1117
I2
I154
I246
tp1060
a(I1090
I2
I181
I333
tp1061
a(I936
I215
I319
I240
tp1062
a(I660
I162
I282
I510
tp1063
a(I660
I162
I282
I515
tp1064
a(I273
I688
I243
I60
tp1065
a(I730
I351
I177
I404
tp1066
a(I430
I224
I306
I542
tp1067
a(I831
I490
I106
I276
tp1068
a(I431
I211
I52
I66
tp1069
a(I387
I287
I128
I391
tp1070
a(I379
I512
I71
I194
tp1071
a(I910
I594
I103
I172
tp1072
a(I831
I490
I182
I276
tp1073
a(I831
I490
I208
I276
tp1074
a(I872
I447
I126
I278
tp1075
a(I431
I210
I52
I67
tp1076
a(I430
I162
I512
I604
tp1077
a(I430
I162
I590
I604
tp1078
a(I892
I210
I75
I61
tp1079
a(I978
I351
I131
I105
tp1080
a(I978
I351
I136
I123
tp1081
a(I0
I17
I1271
I749
tp1082
a(I0
I0
I299
I655
tp1083
a(I0
I0
I491
I720
tp1084
a(I0
I0
I491
I729
tp1085
a(I0
I0
I618
I729
tp1086
a(I0
I0
I1020
I766
tp1087
a(I223
I0
I176
I72
tp1088
a(I831
I490
I209
I276
tp1089
a(I430
I210
I53
I67
tp1090
a(I272
I688
I244
I60
tp1091
a(I238
I354
I80
I278
tp1092
a(I427
I2
I844
I333
tp1093
a(I254
I11
I68
I60
tp1094
a(I430
I210
I55
I67
tp1095
a(I223
I0
I317
I72
tp1096
a(I602
I672
I208
I94
tp1097
a(I601
I672
I209
I94
tp1098
a(I601
I672
I212
I94
tp1099
a(I0
I0
I1040
I766
tp1100
a(I0
I0
I1078
I766
tp1101
a(I0
I0
I1087
I766
tp1102
a(I1065
I477
I71
I165
tp1103
a(I1065
I476
I79
I166
tp1104
a(I830
I346
I160
I102
tp1105
a(I830
I346
I306
I252
tp1106
a(I387
I287
I133
I391
tp1107
a(I223
I0
I910
I72
tp1108
a(I223
I0
I1048
I72
tp1109
a(I222
I0
I1049
I72
tp1110
a(I222
I0
I1049
I335
tp1111
a(I599
I672
I214
I94
tp1112
a(I387
I287
I133
I392
tp1113
a(I0
I0
I1271
I766
tp1114
a(I830
I346
I306
I257
tp1115
asS'crop001003.png'
p1116
(lp1117
(I0
I0
I850
I146
tp1118
a(I532
I39
I90
I80
tp1119
a(I517
I40
I70
I69
tp1120
a(I409
I49
I154
I79
tp1121
a(I367
I60
I51
I60
tp1122
a(I17
I98
I329
I280
tp1123
a(I109
I181
I136
I83
tp1124
a(I157
I304
I76
I127
tp1125
a(I182
I304
I106
I95
tp1126
a(I0
I139
I93
I70
tp1127
a(I773
I100
I58
I70
tp1128
a(I733
I104
I90
I70
tp1129
a(I170
I113
I680
I461
tp1130
a(I246
I182
I106
I79
tp1131
a(I347
I286
I134
I235
tp1132
a(I653
I281
I63
I71
tp1133
a(I598
I470
I51
I65
tp1134
a(I576
I113
I195
I86
tp1135
a(I629
I183
I57
I54
tp1136
a(I0
I179
I190
I147
tp1137
a(I11
I223
I334
I254
tp1138
a(I0
I326
I445
I649
tp1139
a(I0
I233
I127
I247
tp1140
a(I472
I305
I163
I396
tp1141
a(I56
I380
I64
I93
tp1142
a(I238
I506
I612
I279
tp1143
a(I629
I558
I148
I151
tp1144
a(I659
I564
I191
I137
tp1145
a(I266
I783
I193
I56
tp1146
a(I0
I537
I51
I58
tp1147
a(I0
I668
I58
I95
tp1148
a(I460
I778
I390
I61
tp1149
a(I132
I790
I70
I62
tp1150
a(I0
I826
I76
I149
tp1151
a(I120
I850
I146
I125
tp1152
a(I300
I846
I550
I129
tp1153
a(I123
I850
I107
I58
tp1154
a(I335
I901
I332
I61
tp1155
a(I336
I910
I327
I65
tp1156
a(I143
I910
I118
I65
tp1157
a(I0
I912
I70
I63
tp1158
a(I0
I113
I850
I461
tp1159
a(I0
I0
I850
I147
tp1160
a(I14
I179
I147
I78
tp1161
a(I653
I247
I75
I105
tp1162
a(I347
I286
I154
I235
tp1163
a(I0
I98
I346
I280
tp1164
a(I11
I182
I341
I295
tp1165
a(I598
I905
I72
I70
tp1166
a(I346
I265
I155
I256
tp1167
a(I367
I49
I196
I79
tp1168
a(I0
I625
I62
I225
tp1169
a(I614
I507
I177
I64
tp1170
a(I78
I96
I246
I70
tp1171
a(I264
I783
I195
I56
tp1172
a(I0
I98
I346
I302
tp1173
a(I0
I113
I850
I588
tp1174
a(I598
I905
I73
I70
tp1175
a(I0
I96
I346
I304
tp1176
a(I773
I100
I77
I85
tp1177
a(I0
I621
I63
I112
tp1178
a(I0
I96
I359
I304
tp1179
a(I629
I183
I69
I54
tp1180
a(I181
I531
I79
I193
tp1181
a(I505
I40
I82
I69
tp1182
a(I629
I183
I90
I54
tp1183
a(I766
I106
I54
I53
tp1184
a(I625
I546
I149
I161
tp1185
a(I336
I905
I335
I70
tp1186
a(I362
I360
I125
I142
tp1187
a(I0
I113
I850
I611
tp1188
a(I0
I911
I71
I64
tp1189
a(I264
I782
I196
I57
tp1190
a(I597
I490
I194
I81
tp1191
a(I659
I559
I191
I142
tp1192
a(I367
I49
I196
I85
tp1193
a(I628
I177
I91
I60
tp1194
a(I0
I96
I359
I335
tp1195
a(I629
I556
I152
I153
tp1196
a(I724
I104
I99
I70
tp1197
a(I346
I214
I155
I307
tp1198
a(I0
I326
I447
I649
tp1199
a(I311
I870
I360
I105
tp1200
a(I367
I47
I196
I87
tp1201
a(I592
I396
I52
I73
tp1202
a(I0
I113
I850
I862
tp1203
a(I56
I380
I65
I93
tp1204
a(I625
I545
I149
I162
tp1205
a(I346
I214
I312
I341
tp1206
a(I238
I214
I612
I571
tp1207
a(I366
I47
I197
I87
tp1208
a(I125
I858
I136
I117
tp1209
a(I532
I39
I234
I86
tp1210
a(I366
I39
I400
I95
tp1211
a(I470
I640
I96
I63
tp1212
a(I371
I138
I50
I64
tp1213
a(I625
I545
I156
I164
tp1214
a(I605
I66
I76
I51
tp1215
a(I366
I39
I400
I123
tp1216
a(I592
I396
I55
I74
tp1217
a(I592
I386
I55
I84
tp1218
a(I589
I66
I175
I57
tp1219
a(I625
I545
I157
I164
tp1220
a(I123
I850
I108
I59
tp1221
a(I724
I104
I99
I72
tp1222
a(I766
I96
I59
I63
tp1223
a(I0
I92
I359
I339
tp1224
a(I366
I39
I400
I170
tp1225
a(I641
I247
I87
I105
tp1226
a(I129
I789
I149
I148
tp1227
a(I115
I789
I173
I185
tp1228
a(I724
I96
I101
I80
tp1229
a(I668
I96
I157
I80
tp1230
a(I238
I214
I612
I572
tp1231
a(I0
I96
I850
I879
tp1232
a(I361
I39
I405
I170
tp1233
a(I628
I177
I91
I61
tp1234
a(I138
I39
I628
I170
tp1235
a(I0
I39
I766
I392
tp1236
a(I0
I39
I766
I401
tp1237
a(I0
I39
I766
I430
tp1238
a(I0
I664
I58
I99
tp1239
a(I0
I662
I58
I101
tp1240
a(I0
I662
I59
I101
tp1241
a(I261
I768
I199
I71
tp1242
a(I668
I94
I182
I82
tp1243
a(I668
I94
I182
I86
tp1244
a(I299
I845
I551
I130
tp1245
a(I0
I39
I850
I936
tp1246
a(I460
I778
I390
I64
tp1247
a(I261
I768
I389
I71
tp1248
a(I261
I768
I589
I74
tp1249
a(I0
I662
I59
I120
tp1250
a(I589
I66
I261
I114
tp1251
a(I771
I99
I79
I86
tp1252
a(I0
I0
I850
I975
tp1253
asS'crop_000608.png'
p1254
(lp1255
(I0
I0
I367
I380
tp1256
a(I106
I161
I261
I237
tp1257
a(I0
I150
I367
I318
tp1258
a(I190
I154
I54
I123
tp1259
a(I177
I296
I80
I97
tp1260
a(I0
I301
I122
I53
tp1261
a(I0
I387
I208
I81
tp1262
a(I0
I383
I208
I85
tp1263
a(I87
I161
I280
I237
tp1264
a(I131
I199
I60
I115
tp1265
a(I168
I120
I76
I157
tp1266
a(I87
I151
I280
I247
tp1267
a(I131
I199
I62
I124
tp1268
a(I130
I199
I63
I124
tp1269
a(I168
I120
I77
I158
tp1270
a(I130
I120
I115
I203
tp1271
a(I0
I300
I122
I54
tp1272
a(I0
I295
I122
I59
tp1273
a(I130
I120
I127
I273
tp1274
a(I0
I120
I257
I348
tp1275
a(I87
I151
I280
I248
tp1276
a(I0
I120
I367
I348
tp1277
a(I0
I0
I367
I399
tp1278
a(I0
I0
I367
I468
tp1279
asS'crop001008.png'
p1280
(lp1281
(I0
I0
I284
I124
tp1282
a(I307
I0
I161
I155
tp1283
a(I230
I23
I127
I92
tp1284
a(I396
I141
I69
I194
tp1285
a(I477
I0
I235
I699
tp1286
a(I617
I19
I95
I152
tp1287
a(I531
I39
I181
I660
tp1288
a(I654
I89
I58
I91
tp1289
a(I230
I76
I124
I84
tp1290
a(I311
I117
I56
I51
tp1291
a(I283
I147
I124
I186
tp1292
a(I655
I83
I57
I57
tp1293
a(I0
I116
I470
I583
tp1294
a(I554
I176
I86
I125
tp1295
a(I603
I586
I52
I52
tp1296
a(I230
I23
I127
I96
tp1297
a(I230
I23
I127
I137
tp1298
a(I560
I18
I152
I191
tp1299
a(I230
I23
I127
I138
tp1300
a(I530
I39
I182
I660
tp1301
a(I524
I212
I128
I487
tp1302
a(I230
I23
I131
I138
tp1303
a(I16
I114
I271
I122
tp1304
a(I0
I152
I50
I74
tp1305
a(I0
I150
I50
I76
tp1306
a(I534
I177
I146
I463
tp1307
a(I350
I214
I119
I390
tp1308
a(I0
I286
I68
I140
tp1309
a(I350
I213
I119
I391
tp1310
a(I344
I213
I125
I391
tp1311
a(I344
I213
I125
I395
tp1312
a(I396
I141
I70
I194
tp1313
a(I384
I141
I82
I194
tp1314
a(I270
I89
I97
I79
tp1315
a(I475
I0
I237
I699
tp1316
a(I472
I0
I240
I699
tp1317
a(I193
I0
I213
I55
tp1318
a(I554
I574
I101
I125
tp1319
a(I534
I177
I148
I463
tp1320
a(I0
I114
I470
I585
tp1321
a(I216
I342
I51
I77
tp1322
a(I270
I89
I98
I79
tp1323
a(I283
I142
I124
I191
tp1324
a(I212
I282
I65
I140
tp1325
a(I632
I51
I80
I89
tp1326
a(I537
I176
I104
I381
tp1327
a(I193
I0
I276
I55
tp1328
a(I301
I0
I167
I155
tp1329
a(I0
I84
I85
I54
tp1330
a(I283
I141
I183
I194
tp1331
a(I126
I57
I107
I61
tp1332
a(I524
I204
I128
I495
tp1333
a(I193
I0
I276
I58
tp1334
a(I216
I342
I58
I77
tp1335
a(I524
I204
I131
I495
tp1336
a(I270
I89
I196
I246
tp1337
a(I149
I89
I317
I246
tp1338
a(I149
I86
I317
I249
tp1339
a(I149
I86
I317
I342
tp1340
a(I149
I86
I317
I351
tp1341
a(I5
I292
I50
I118
tp1342
a(I193
I0
I298
I249
tp1343
a(I149
I0
I342
I437
tp1344
a(I124
I0
I367
I437
tp1345
a(I104
I0
I387
I437
tp1346
a(I230
I23
I131
I144
tp1347
a(I230
I23
I131
I145
tp1348
a(I5
I292
I50
I122
tp1349
a(I471
I0
I241
I699
tp1350
a(I5
I292
I51
I122
tp1351
a(I5
I290
I51
I124
tp1352
a(I0
I0
I284
I132
tp1353
a(I525
I39
I187
I660
tp1354
a(I301
I0
I167
I156
tp1355
a(I126
I57
I109
I72
tp1356
a(I230
I23
I133
I145
tp1357
a(I301
I0
I168
I156
tp1358
a(I0
I115
I115
I111
tp1359
a(I0
I115
I119
I111
tp1360
a(I0
I23
I470
I676
tp1361
a(I0
I23
I471
I676
tp1362
a(I5
I290
I52
I124
tp1363
a(I0
I84
I85
I55
tp1364
a(I126
I57
I109
I83
tp1365
a(I126
I55
I109
I85
tp1366
a(I126
I55
I109
I86
tp1367
a(I125
I55
I110
I86
tp1368
a(I5
I290
I52
I134
tp1369
a(I0
I0
I491
I437
tp1370
a(I0
I0
I471
I699
tp1371
a(I0
I0
I712
I699
tp1372
asS'crop001005.png'
p1373
(lp1374
(I0
I0
I251
I178
tp1375
a(I1
I0
I61
I53
tp1376
a(I253
I0
I556
I254
tp1377
a(I762
I0
I128
I106
tp1378
a(I95
I30
I170
I74
tp1379
a(I100
I47
I198
I149
tp1380
a(I167
I165
I52
I77
tp1381
a(I670
I97
I220
I97
tp1382
a(I615
I123
I85
I60
tp1383
a(I405
I104
I65
I76
tp1384
a(I86
I113
I50
I55
tp1385
a(I32
I167
I53
I51
tp1386
a(I538
I156
I74
I89
tp1387
a(I221
I137
I100
I57
tp1388
a(I233
I144
I74
I65
tp1389
a(I636
I138
I254
I443
tp1390
a(I636
I448
I85
I126
tp1391
a(I296
I151
I158
I207
tp1392
a(I0
I171
I225
I385
tp1393
a(I170
I166
I67
I109
tp1394
a(I295
I216
I226
I160
tp1395
a(I550
I171
I134
I184
tp1396
a(I214
I191
I107
I289
tp1397
a(I220
I230
I443
I700
tp1398
a(I344
I855
I70
I64
tp1399
a(I0
I208
I53
I159
tp1400
a(I838
I236
I52
I58
tp1401
a(I442
I244
I75
I131
tp1402
a(I343
I304
I54
I75
tp1403
a(I0
I365
I77
I107
tp1404
a(I0
I467
I318
I223
tp1405
a(I144
I537
I94
I59
tp1406
a(I611
I539
I131
I115
tp1407
a(I787
I561
I103
I152
tp1408
a(I612
I543
I270
I119
tp1409
a(I608
I655
I187
I55
tp1410
a(I0
I688
I308
I153
tp1411
a(I597
I710
I290
I66
tp1412
a(I102
I736
I118
I71
tp1413
a(I0
I749
I469
I214
tp1414
a(I461
I762
I429
I213
tp1415
a(I270
I826
I53
I105
tp1416
a(I340
I851
I65
I59
tp1417
a(I486
I875
I51
I66
tp1418
a(I0
I749
I890
I226
tp1419
a(I0
I688
I308
I170
tp1420
a(I0
I0
I252
I178
tp1421
a(I615
I97
I275
I97
tp1422
a(I341
I759
I151
I124
tp1423
a(I0
I0
I252
I179
tp1424
a(I0
I0
I83
I55
tp1425
a(I615
I97
I275
I105
tp1426
a(I220
I227
I443
I703
tp1427
a(I295
I216
I226
I183
tp1428
a(I824
I236
I66
I58
tp1429
a(I762
I0
I128
I111
tp1430
a(I615
I0
I275
I202
tp1431
a(I538
I156
I125
I89
tp1432
a(I0
I688
I890
I287
tp1433
a(I786
I561
I104
I152
tp1434
a(I24
I311
I50
I70
tp1435
a(I253
I0
I556
I375
tp1436
a(I220
I171
I464
I759
tp1437
a(I100
I47
I221
I149
tp1438
a(I0
I171
I684
I759
tp1439
a(I0
I138
I890
I792
tp1440
a(I336
I117
I61
I62
tp1441
a(I341
I759
I156
I124
tp1442
a(I229
I144
I78
I65
tp1443
a(I100
I43
I176
I136
tp1444
a(I208
I191
I113
I306
tp1445
a(I372
I265
I65
I96
tp1446
a(I340
I855
I123
I65
tp1447
a(I343
I304
I60
I75
tp1448
a(I597
I710
I293
I66
tp1449
a(I604
I0
I286
I202
tp1450
a(I557
I0
I333
I216
tp1451
a(I151
I165
I68
I77
tp1452
a(I824
I236
I66
I59
tp1453
a(I100
I47
I221
I151
tp1454
a(I314
I545
I65
I137
tp1455
a(I759
I561
I131
I152
tp1456
a(I0
I191
I321
I499
tp1457
a(I0
I165
I321
I525
tp1458
a(I0
I0
I809
I690
tp1459
a(I0
I0
I890
I690
tp1460
a(I0
I165
I77
I51
tp1461
a(I3
I365
I70
I86
tp1462
a(I0
I138
I890
I803
tp1463
a(I339
I855
I124
I65
tp1464
a(I636
I448
I116
I133
tp1465
a(I608
I643
I187
I67
tp1466
a(I86
I113
I62
I55
tp1467
a(I100
I43
I176
I142
tp1468
a(I100
I47
I221
I152
tp1469
a(I443
I175
I221
I201
tp1470
a(I405
I98
I65
I82
tp1471
a(I595
I710
I295
I66
tp1472
a(I337
I855
I126
I65
tp1473
a(I342
I304
I61
I75
tp1474
a(I95
I30
I170
I81
tp1475
a(I608
I643
I187
I68
tp1476
a(I0
I0
I890
I693
tp1477
a(I0
I133
I890
I808
tp1478
a(I337
I855
I130
I66
tp1479
a(I314
I527
I81
I155
tp1480
a(I755
I561
I135
I155
tp1481
a(I611
I522
I131
I132
tp1482
a(I611
I500
I131
I154
tp1483
a(I93
I735
I200
I81
tp1484
a(I612
I534
I270
I128
tp1485
a(I0
I165
I77
I56
tp1486
a(I0
I165
I85
I56
tp1487
a(I0
I165
I91
I56
tp1488
a(I604
I643
I191
I68
tp1489
a(I612
I534
I271
I128
tp1490
a(I372
I235
I65
I126
tp1491
a(I595
I710
I295
I68
tp1492
a(I486
I875
I79
I66
tp1493
a(I91
I735
I202
I81
tp1494
a(I0
I108
I890
I833
tp1495
a(I152
I168
I55
I67
tp1496
a(I311
I0
I66
I70
tp1497
a(I0
I0
I890
I941
tp1498
a(I0
I0
I890
I944
tp1499
a(I3
I365
I70
I89
tp1500
a(I0
I364
I73
I90
tp1501
a(I0
I0
I890
I975
tp1502
asS'crop001017.png'
p1503
(lp1504
(I0
I0
I133
I494
tp1505
a(I23
I279
I199
I339
tp1506
a(I86
I309
I60
I101
tp1507
a(I0
I416
I473
I559
tp1508
a(I0
I514
I118
I242
tp1509
a(I0
I822
I123
I153
tp1510
a(I35
I595
I64
I142
tp1511
a(I0
I593
I99
I152
tp1512
a(I444
I912
I50
I55
tp1513
a(I4
I922
I87
I53
tp1514
a(I215
I631
I244
I330
tp1515
a(I81
I0
I562
I975
tp1516
a(I211
I538
I287
I396
tp1517
a(I342
I450
I66
I161
tp1518
a(I371
I448
I63
I164
tp1519
a(I280
I362
I97
I166
tp1520
a(I202
I369
I56
I87
tp1521
a(I250
I404
I115
I130
tp1522
a(I276
I756
I73
I84
tp1523
a(I396
I822
I51
I67
tp1524
a(I4
I890
I125
I85
tp1525
a(I0
I890
I129
I85
tp1526
a(I209
I287
I253
I621
tp1527
a(I0
I822
I129
I153
tp1528
a(I88
I39
I380
I882
tp1529
a(I88
I39
I410
I895
tp1530
a(I88
I39
I410
I922
tp1531
a(I132
I245
I330
I663
tp1532
a(I157
I914
I81
I61
tp1533
a(I202
I369
I163
I165
tp1534
a(I0
I0
I133
I498
tp1535
a(I0
I822
I139
I153
tp1536
a(I67
I0
I576
I975
tp1537
a(I0
I803
I142
I172
tp1538
a(I0
I416
I494
I559
tp1539
a(I0
I39
I498
I936
tp1540
a(I216
I542
I57
I318
tp1541
a(I216
I542
I57
I321
tp1542
a(I359
I448
I75
I164
tp1543
a(I0
I803
I149
I172
tp1544
a(I342
I402
I66
I209
tp1545
a(I0
I0
I133
I578
tp1546
a(I206
I542
I67
I321
tp1547
a(I206
I538
I67
I325
tp1548
a(I478
I472
I52
I113
tp1549
a(I0
I0
I643
I975
tp1550
a(I77
I309
I69
I101
tp1551
a(I202
I369
I164
I165
tp1552
a(I301
I402
I139
I228
tp1553
a(I276
I401
I164
I229
tp1554
a(I127
I174
I68
I118
tp1555
a(I0
I0
I498
I975
tp1556
a(I351
I448
I83
I164
tp1557
a(I351
I444
I86
I168
tp1558
a(I202
I366
I59
I124
tp1559
a(I226
I355
I211
I257
tp1560
a(I226
I348
I211
I264
tp1561
a(I79
I0
I71
I237
tp1562
a(I0
I0
I508
I975
tp1563
a(I196
I348
I241
I264
tp1564
a(I281
I354
I128
I54
tp1565
a(I202
I354
I207
I180
tp1566
a(I196
I348
I241
I284
tp1567
a(I0
I0
I512
I975
tp1568
asS'crop001001.png'
p1569
(lp1570
(I0
I0
I506
I198
tp1571
a(I81
I0
I58
I69
tp1572
a(I135
I0
I52
I59
tp1573
a(I431
I0
I80
I67
tp1574
a(I457
I22
I110
I66
tp1575
a(I455
I0
I134
I113
tp1576
a(I469
I0
I263
I111
tp1577
a(I429
I77
I290
I114
tp1578
a(I330
I143
I487
I339
tp1579
a(I422
I178
I219
I90
tp1580
a(I544
I357
I62
I151
tp1581
a(I449
I401
I115
I132
tp1582
a(I308
I216
I234
I229
tp1583
a(I602
I311
I201
I166
tp1584
a(I692
I0
I76
I93
tp1585
a(I552
I0
I265
I142
tp1586
a(I69
I140
I81
I88
tp1587
a(I33
I166
I63
I67
tp1588
a(I248
I202
I78
I107
tp1589
a(I185
I165
I67
I60
tp1590
a(I202
I150
I56
I98
tp1591
a(I272
I207
I60
I59
tp1592
a(I168
I222
I62
I160
tp1593
a(I532
I190
I105
I58
tp1594
a(I429
I188
I119
I86
tp1595
a(I304
I200
I224
I457
tp1596
a(I0
I204
I183
I206
tp1597
a(I29
I251
I260
I454
tp1598
a(I576
I329
I205
I323
tp1599
a(I589
I309
I228
I573
tp1600
a(I0
I321
I69
I151
tp1601
a(I45
I393
I126
I56
tp1602
a(I272
I405
I51
I57
tp1603
a(I537
I499
I60
I79
tp1604
a(I474
I770
I130
I55
tp1605
a(I0
I534
I586
I238
tp1606
a(I0
I770
I481
I59
tp1607
a(I262
I539
I52
I60
tp1608
a(I257
I583
I53
I85
tp1609
a(I160
I566
I95
I116
tp1610
a(I259
I649
I101
I53
tp1611
a(I647
I698
I129
I137
tp1612
a(I0
I815
I633
I160
tp1613
a(I609
I821
I112
I65
tp1614
a(I609
I822
I191
I66
tp1615
a(I567
I889
I250
I86
tp1616
a(I0
I897
I543
I78
tp1617
a(I513
I291
I72
I67
tp1618
a(I248
I190
I102
I119
tp1619
a(I457
I22
I110
I90
tp1620
a(I429
I77
I290
I123
tp1621
a(I259
I200
I269
I502
tp1622
a(I151
I141
I101
I84
tp1623
a(I499
I239
I86
I119
tp1624
a(I454
I769
I150
I56
tp1625
a(I567
I172
I103
I74
tp1626
a(I544
I357
I62
I160
tp1627
a(I429
I77
I290
I134
tp1628
a(I196
I150
I62
I116
tp1629
a(I151
I141
I101
I100
tp1630
a(I0
I141
I252
I269
tp1631
a(I429
I51
I290
I160
tp1632
a(I429
I51
I290
I162
tp1633
a(I609
I821
I161
I65
tp1634
a(I0
I770
I481
I60
tp1635
a(I193
I150
I65
I116
tp1636
a(I0
I141
I258
I269
tp1637
a(I455
I0
I134
I125
tp1638
a(I0
I892
I543
I83
tp1639
a(I248
I190
I102
I160
tp1640
a(I11
I504
I68
I99
tp1641
a(I576
I309
I241
I573
tp1642
a(I442
I0
I147
I125
tp1643
a(I259
I143
I558
I559
tp1644
a(I532
I190
I105
I61
tp1645
a(I429
I51
I290
I200
tp1646
a(I544
I349
I65
I168
tp1647
a(I422
I178
I219
I96
tp1648
a(I0
I770
I481
I62
tp1649
a(I499
I239
I92
I119
tp1650
a(I454
I769
I152
I56
tp1651
a(I425
I51
I294
I200
tp1652
a(I537
I349
I72
I229
tp1653
a(I609
I821
I191
I67
tp1654
a(I0
I815
I800
I160
tp1655
a(I454
I769
I152
I64
tp1656
a(I412
I178
I229
I96
tp1657
a(I398
I76
I160
I97
tp1658
a(I398
I76
I160
I108
tp1659
a(I499
I239
I96
I119
tp1660
a(I0
I534
I588
I238
tp1661
a(I0
I0
I732
I198
tp1662
a(I0
I0
I732
I274
tp1663
a(I0
I0
I732
I358
tp1664
a(I0
I321
I148
I151
tp1665
a(I431
I0
I80
I70
tp1666
a(I443
I605
I143
I95
tp1667
a(I439
I605
I147
I95
tp1668
a(I44
I393
I127
I56
tp1669
a(I425
I0
I294
I251
tp1670
a(I425
I0
I309
I251
tp1671
a(I424
I0
I310
I251
tp1672
a(I379
I0
I355
I251
tp1673
a(I454
I752
I178
I81
tp1674
a(I567
I172
I103
I90
tp1675
a(I683
I0
I85
I93
tp1676
a(I0
I321
I171
I151
tp1677
a(I0
I0
I732
I410
tp1678
a(I0
I0
I817
I702
tp1679
a(I362
I76
I196
I108
tp1680
a(I449
I401
I133
I134
tp1681
a(I449
I401
I134
I134
tp1682
a(I738
I307
I79
I155
tp1683
a(I264
I207
I68
I78
tp1684
a(I758
I164
I59
I67
tp1685
a(I431
I0
I86
I70
tp1686
a(I427
I605
I159
I95
tp1687
a(I575
I309
I242
I573
tp1688
a(I128
I571
I126
I133
tp1689
a(I128
I571
I126
I136
tp1690
a(I257
I539
I57
I129
tp1691
a(I0
I0
I817
I731
tp1692
a(I463
I894
I84
I75
tp1693
a(I248
I207
I84
I110
tp1694
a(I248
I207
I84
I143
tp1695
a(I243
I207
I89
I143
tp1696
a(I243
I185
I89
I165
tp1697
a(I243
I185
I107
I165
tp1698
a(I568
I309
I249
I573
tp1699
a(I362
I76
I203
I108
tp1700
a(I721
I307
I96
I186
tp1701
a(I654
I307
I163
I291
tp1702
a(I135
I0
I65
I59
tp1703
a(I0
I162
I89
I90
tp1704
a(I128
I571
I127
I136
tp1705
a(I0
I815
I817
I160
tp1706
a(I248
I189
I102
I161
tp1707
a(I568
I309
I249
I580
tp1708
a(I29
I251
I265
I454
tp1709
a(I29
I251
I265
I462
tp1710
a(I128
I571
I127
I138
tp1711
a(I568
I307
I249
I582
tp1712
a(I47
I645
I71
I65
tp1713
a(I47
I645
I82
I65
tp1714
a(I47
I571
I208
I139
tp1715
a(I83
I126
I175
I95
tp1716
a(I29
I246
I265
I467
tp1717
a(I431
I0
I86
I72
tp1718
a(I379
I0
I438
I251
tp1719
a(I0
I752
I632
I81
tp1720
a(I243
I157
I117
I193
tp1721
a(I554
I307
I263
I582
tp1722
a(I431
I0
I86
I73
tp1723
a(I430
I0
I87
I73
tp1724
a(I647
I698
I129
I139
tp1725
a(I367
I0
I450
I251
tp1726
a(I0
I524
I588
I248
tp1727
a(I0
I0
I817
I732
tp1728
a(I463
I894
I86
I81
tp1729
a(I74
I643
I177
I71
tp1730
a(I80
I0
I59
I69
tp1731
a(I0
I407
I588
I365
tp1732
a(I328
I0
I489
I251
tp1733
a(I449
I401
I134
I135
tp1734
a(I0
I401
I588
I371
tp1735
a(I0
I0
I817
I772
tp1736
a(I0
I0
I817
I833
tp1737
a(I0
I0
I817
I866
tp1738
a(I0
I0
I817
I975
tp1739
a(I178
I307
I639
I582
tp1740
a(I551
I0
I266
I142
tp1741
a(I272
I403
I51
I60
tp1742
asS'crop001015.png'
p1743
(lp1744
(I0
I0
I432
I542
tp1745
a(I252
I0
I223
I120
tp1746
a(I234
I0
I238
I132
tp1747
a(I221
I0
I397
I180
tp1748
a(I313
I48
I82
I66
tp1749
a(I150
I85
I73
I52
tp1750
a(I207
I96
I411
I199
tp1751
a(I312
I179
I93
I76
tp1752
a(I128
I132
I273
I307
tp1753
a(I290
I261
I328
I203
tp1754
a(I234
I294
I80
I50
tp1755
a(I243
I310
I118
I78
tp1756
a(I269
I368
I92
I185
tp1757
a(I254
I378
I55
I69
tp1758
a(I341
I387
I277
I314
tp1759
a(I182
I412
I69
I67
tp1760
a(I281
I443
I86
I76
tp1761
a(I115
I469
I182
I104
tp1762
a(I0
I495
I618
I468
tp1763
a(I136
I606
I184
I56
tp1764
a(I0
I768
I210
I195
tp1765
a(I123
I864
I102
I99
tp1766
a(I128
I132
I490
I569
tp1767
a(I128
I132
I490
I591
tp1768
a(I207
I96
I411
I368
tp1769
a(I221
I0
I397
I255
tp1770
a(I0
I768
I211
I195
tp1771
a(I128
I132
I490
I592
tp1772
a(I207
I0
I411
I464
tp1773
a(I46
I355
I105
I106
tp1774
a(I0
I767
I211
I196
tp1775
a(I0
I0
I618
I963
tp1776
a(I395
I392
I223
I75
tp1777
a(I338
I385
I280
I82
tp1778
a(I129
I85
I94
I105
tp1779
a(I44
I305
I109
I86
tp1780
a(I281
I443
I96
I139
tp1781
a(I41
I305
I112
I86
tp1782
a(I41
I305
I112
I90
tp1783
a(I0
I767
I213
I196
tp1784
a(I115
I469
I183
I104
tp1785
a(I269
I368
I92
I249
tp1786
a(I188
I404
I55
I62
tp1787
a(I185
I404
I58
I62
tp1788
a(I182
I404
I69
I75
tp1789
a(I182
I404
I69
I89
tp1790
a(I41
I286
I112
I109
tp1791
a(I93
I834
I141
I129
tp1792
a(I114
I85
I109
I195
tp1793
a(I182
I404
I96
I89
tp1794
a(I121
I404
I157
I132
tp1795
a(I249
I442
I119
I136
tp1796
a(I477
I648
I110
I51
tp1797
a(I477
I648
I125
I68
tp1798
a(I477
I648
I141
I79
tp1799
a(I225
I338
I83
I57
tp1800
a(I225
I336
I83
I59
tp1801
a(I225
I336
I83
I68
tp1802
a(I327
I385
I291
I82
tp1803
a(I225
I293
I103
I111
tp1804
a(I476
I648
I142
I80
tp1805
a(I125
I605
I195
I57
tp1806
a(I115
I132
I503
I592
tp1807
a(I110
I132
I508
I592
tp1808
asS'crop_000011.png'
p1809
(lp1810
(I0
I0
I585
I719
tp1811
a(I10
I67
I143
I72
tp1812
a(I270
I205
I315
I477
tp1813
a(I128
I455
I94
I77
tp1814
a(I16
I505
I91
I89
tp1815
a(I236
I358
I176
I341
tp1816
a(I237
I336
I348
I383
tp1817
a(I0
I501
I86
I94
tp1818
a(I70
I84
I80
I54
tp1819
a(I269
I186
I75
I73
tp1820
a(I323
I199
I58
I66
tp1821
a(I67
I265
I71
I55
tp1822
a(I435
I331
I150
I228
tp1823
a(I481
I333
I104
I73
tp1824
a(I521
I466
I64
I51
tp1825
a(I290
I382
I52
I123
tp1826
a(I210
I379
I157
I208
tp1827
a(I263
I497
I60
I89
tp1828
a(I141
I527
I140
I94
tp1829
a(I137
I510
I101
I76
tp1830
a(I369
I513
I94
I67
tp1831
a(I0
I517
I86
I78
tp1832
a(I492
I413
I93
I95
tp1833
a(I10
I505
I97
I89
tp1834
a(I116
I455
I106
I77
tp1835
a(I23
I265
I115
I69
tp1836
a(I0
I501
I103
I94
tp1837
a(I492
I413
I93
I118
tp1838
a(I0
I493
I103
I102
tp1839
a(I369
I331
I216
I249
tp1840
a(I137
I499
I101
I87
tp1841
a(I10
I67
I143
I84
tp1842
a(I492
I401
I93
I130
tp1843
a(I236
I343
I200
I356
tp1844
a(I137
I343
I299
I356
tp1845
a(I137
I338
I299
I361
tp1846
a(I152
I265
I57
I112
tp1847
a(I0
I493
I107
I102
tp1848
a(I70
I84
I80
I68
tp1849
a(I234
I640
I129
I64
tp1850
a(I234
I640
I129
I73
tp1851
a(I220
I635
I143
I78
tp1852
a(I23
I263
I115
I71
tp1853
a(I23
I255
I117
I79
tp1854
a(I116
I455
I120
I77
tp1855
a(I272
I542
I88
I74
tp1856
a(I272
I514
I88
I102
tp1857
a(I323
I199
I73
I66
tp1858
a(I130
I265
I79
I117
tp1859
a(I23
I255
I168
I79
tp1860
a(I137
I295
I299
I404
tp1861
a(I111
I295
I325
I404
tp1862
a(I0
I473
I107
I122
tp1863
a(I494
I163
I91
I67
tp1864
a(I15
I255
I176
I79
tp1865
a(I266
I505
I171
I120
tp1866
a(I104
I295
I332
I404
tp1867
a(I264
I152
I158
I191
tp1868
a(I70
I81
I88
I71
tp1869
a(I266
I331
I319
I294
tp1870
a(I30
I73
I128
I79
tp1871
a(I264
I152
I250
I191
tp1872
a(I264
I152
I321
I191
tp1873
a(I0
I255
I191
I79
tp1874
a(I130
I264
I79
I118
tp1875
a(I104
I152
I481
I547
tp1876
a(I265
I496
I95
I120
tp1877
a(I237
I335
I348
I384
tp1878
a(I171
I155
I147
I69
tp1879
a(I171
I155
I173
I104
tp1880
a(I210
I379
I157
I237
tp1881
a(I10
I67
I148
I85
tp1882
a(I104
I152
I481
I567
tp1883
a(I28
I350
I93
I53
tp1884
a(I106
I455
I130
I77
tp1885
a(I220
I635
I143
I84
tp1886
a(I0
I255
I209
I127
tp1887
a(I0
I473
I143
I124
tp1888
a(I0
I152
I585
I567
tp1889
a(I267
I198
I318
I484
tp1890
a(I23
I349
I98
I54
tp1891
a(I264
I544
I123
I100
tp1892
a(I264
I544
I123
I101
tp1893
a(I264
I544
I123
I105
tp1894
a(I243
I544
I144
I105
tp1895
a(I23
I349
I126
I54
tp1896
asS'crop_000606.png'
p1897
(lp1898
(I0
I0
I435
I427
tp1899
a(I190
I0
I55
I154
tp1900
a(I229
I178
I51
I82
tp1901
a(I253
I0
I57
I154
tp1902
a(I313
I0
I56
I100
tp1903
a(I348
I160
I72
I80
tp1904
a(I345
I68
I91
I99
tp1905
a(I382
I161
I67
I100
tp1906
a(I282
I142
I76
I75
tp1907
a(I406
I0
I176
I127
tp1908
a(I439
I49
I82
I85
tp1909
a(I460
I64
I62
I58
tp1910
a(I457
I102
I122
I55
tp1911
a(I436
I118
I116
I115
tp1912
a(I425
I162
I130
I265
tp1913
a(I505
I186
I77
I120
tp1914
a(I286
I248
I148
I69
tp1915
a(I252
I291
I124
I95
tp1916
a(I311
I324
I66
I103
tp1917
a(I243
I142
I115
I77
tp1918
a(I345
I0
I91
I167
tp1919
a(I251
I291
I125
I95
tp1920
a(I436
I49
I116
I184
tp1921
a(I342
I0
I94
I167
tp1922
a(I425
I162
I133
I265
tp1923
a(I238
I288
I108
I91
tp1924
a(I238
I248
I196
I131
tp1925
a(I119
I0
I73
I182
tp1926
a(I119
I0
I126
I182
tp1927
a(I242
I0
I68
I170
tp1928
a(I342
I0
I113
I167
tp1929
a(I342
I0
I210
I233
tp1930
a(I342
I0
I210
I266
tp1931
a(I342
I0
I240
I306
tp1932
a(I342
I0
I240
I327
tp1933
a(I251
I291
I125
I127
tp1934
a(I230
I0
I80
I246
tp1935
a(I119
I0
I191
I246
tp1936
a(I118
I0
I192
I246
tp1937
a(I229
I172
I84
I88
tp1938
a(I425
I162
I149
I265
tp1939
a(I0
I0
I574
I427
tp1940
a(I313
I318
I70
I109
tp1941
a(I406
I0
I176
I128
tp1942
a(I229
I172
I84
I91
tp1943
a(I243
I139
I115
I80
tp1944
a(I229
I172
I205
I207
tp1945
a(I229
I165
I205
I214
tp1946
a(I337
I0
I245
I327
tp1947
a(I251
I274
I125
I144
tp1948
a(I251
I248
I125
I170
tp1949
a(I406
I0
I176
I157
tp1950
a(I406
I0
I176
I168
tp1951
a(I334
I0
I248
I327
tp1952
a(I240
I122
I118
I97
tp1953
a(I229
I129
I205
I250
tp1954
a(I229
I129
I205
I289
tp1955
a(I229
I129
I206
I289
tp1956
a(I229
I0
I353
I418
tp1957
a(I240
I122
I120
I97
tp1958
a(I221
I0
I361
I418
tp1959
a(I460
I63
I62
I59
tp1960
a(I0
I0
I576
I427
tp1961
a(I39
I0
I57
I89
tp1962
a(I39
I0
I58
I89
tp1963
a(I0
I0
I582
I427
tp1964
asS'crop_000603.png'
p1965
(lp1966
(I0
I0
I89
I95
tp1967
a(I28
I0
I74
I88
tp1968
a(I111
I0
I69
I117
tp1969
a(I122
I41
I57
I76
tp1970
a(I173
I0
I188
I57
tp1971
a(I183
I51
I178
I304
tp1972
a(I0
I91
I132
I254
tp1973
a(I0
I336
I77
I109
tp1974
a(I65
I98
I202
I302
tp1975
a(I106
I383
I160
I259
tp1976
a(I240
I301
I121
I86
tp1977
a(I84
I379
I82
I119
tp1978
a(I0
I384
I80
I98
tp1979
a(I0
I384
I115
I193
tp1980
a(I230
I386
I131
I126
tp1981
a(I108
I489
I105
I110
tp1982
a(I260
I522
I101
I115
tp1983
a(I0
I562
I100
I67
tp1984
a(I3
I617
I253
I58
tp1985
a(I102
I643
I259
I76
tp1986
a(I5
I649
I153
I70
tp1987
a(I0
I384
I213
I215
tp1988
a(I0
I336
I213
I263
tp1989
a(I0
I336
I213
I264
tp1990
a(I239
I274
I114
I82
tp1991
a(I239
I264
I114
I92
tp1992
a(I239
I264
I122
I92
tp1993
a(I0
I290
I213
I310
tp1994
a(I0
I91
I132
I268
tp1995
a(I0
I288
I213
I312
tp1996
a(I46
I229
I69
I258
tp1997
a(I44
I229
I71
I258
tp1998
a(I0
I229
I213
I371
tp1999
a(I182
I51
I179
I304
tp2000
a(I28
I0
I74
I89
tp2001
a(I5
I649
I157
I70
tp2002
a(I65
I98
I296
I302
tp2003
a(I5
I649
I241
I70
tp2004
a(I224
I386
I137
I126
tp2005
a(I222
I386
I139
I126
tp2006
a(I0
I562
I100
I83
tp2007
a(I106
I383
I160
I262
tp2008
a(I28
I0
I76
I89
tp2009
a(I182
I51
I179
I305
tp2010
a(I0
I0
I90
I95
tp2011
a(I28
I0
I76
I91
tp2012
a(I111
I0
I70
I117
tp2013
a(I28
I0
I76
I93
tp2014
a(I59
I92
I76
I278
tp2015
a(I28
I0
I92
I93
tp2016
a(I54
I0
I71
I75
tp2017
a(I0
I614
I97
I67
tp2018
a(I0
I614
I246
I105
tp2019
a(I164
I503
I101
I110
tp2020
a(I3
I611
I253
I64
tp2021
a(I0
I0
I90
I96
tp2022
a(I130
I0
I111
I68
tp2023
a(I0
I562
I100
I101
tp2024
a(I3
I611
I257
I64
tp2025
a(I3
I611
I257
I66
tp2026
a(I54
I0
I73
I75
tp2027
a(I3
I611
I280
I66
tp2028
a(I3
I584
I280
I93
tp2029
a(I0
I562
I283
I115
tp2030
a(I106
I383
I165
I262
tp2031
a(I0
I562
I311
I115
tp2032
a(I0
I562
I361
I157
tp2033
a(I0
I85
I132
I274
tp2034
a(I0
I85
I213
I515
tp2035
a(I106
I383
I172
I262
tp2036
a(I54
I0
I127
I117
tp2037
a(I130
I0
I146
I68
tp2038
a(I97
I356
I181
I289
tp2039
a(I97
I334
I181
I311
tp2040
a(I97
I323
I181
I322
tp2041
a(I97
I323
I206
I322
tp2042
a(I97
I323
I219
I327
tp2043
a(I54
I0
I145
I117
tp2044
a(I74
I323
I242
I327
tp2045
a(I222
I384
I139
I128
tp2046
a(I99
I669
I148
I50
tp2047
a(I259
I522
I102
I129
tp2048
a(I130
I0
I231
I68
tp2049
a(I74
I323
I287
I327
tp2050
a(I64
I98
I297
I302
tp2051
a(I0
I85
I213
I535
tp2052
a(I28
I0
I93
I93
tp2053
a(I0
I614
I247
I105
tp2054
a(I130
I0
I231
I356
tp2055
a(I54
I0
I145
I120
tp2056
a(I64
I98
I297
I395
tp2057
a(I0
I85
I215
I535
tp2058
a(I251
I493
I110
I63
tp2059
a(I0
I0
I121
I96
tp2060
a(I0
I0
I215
I620
tp2061
a(I181
I98
I56
I95
tp2062
a(I181
I98
I102
I215
tp2063
a(I0
I323
I361
I396
tp2064
a(I0
I0
I361
I719
tp2065
asS'crop001019.png'
p2066
(lp2067
(I0
I0
I243
I975
tp2068
a(I182
I846
I75
I120
tp2069
a(I250
I0
I186
I205
tp2070
a(I278
I3
I159
I184
tp2071
a(I280
I0
I281
I328
tp2072
a(I483
I0
I83
I288
tp2073
a(I500
I0
I143
I279
tp2074
a(I517
I182
I126
I144
tp2075
a(I272
I167
I100
I59
tp2076
a(I258
I282
I148
I172
tp2077
a(I213
I241
I94
I188
tp2078
a(I167
I393
I80
I251
tp2079
a(I307
I278
I64
I63
tp2080
a(I508
I206
I135
I134
tp2081
a(I389
I233
I254
I742
tp2082
a(I526
I414
I117
I189
tp2083
a(I534
I449
I109
I90
tp2084
a(I289
I217
I92
I90
tp2085
a(I255
I349
I139
I150
tp2086
a(I387
I422
I128
I269
tp2087
a(I452
I545
I71
I145
tp2088
a(I398
I504
I68
I86
tp2089
a(I397
I527
I114
I119
tp2090
a(I453
I562
I77
I100
tp2091
a(I535
I429
I73
I116
tp2092
a(I530
I458
I102
I112
tp2093
a(I526
I450
I117
I93
tp2094
a(I248
I470
I143
I62
tp2095
a(I205
I500
I300
I246
tp2096
a(I204
I664
I65
I167
tp2097
a(I224
I605
I181
I370
tp2098
a(I342
I643
I142
I332
tp2099
a(I426
I746
I71
I60
tp2100
a(I157
I318
I55
I529
tp2101
a(I342
I562
I188
I413
tp2102
a(I526
I450
I117
I126
tp2103
a(I530
I449
I113
I121
tp2104
a(I278
I3
I159
I211
tp2105
a(I513
I182
I130
I144
tp2106
a(I275
I3
I162
I211
tp2107
a(I481
I0
I85
I323
tp2108
a(I500
I0
I143
I326
tp2109
a(I397
I503
I136
I153
tp2110
a(I397
I450
I246
I206
tp2111
a(I157
I318
I56
I529
tp2112
a(I272
I3
I165
I233
tp2113
a(I272
I0
I171
I236
tp2114
a(I342
I450
I301
I525
tp2115
a(I508
I206
I135
I146
tp2116
a(I154
I318
I59
I529
tp2117
a(I508
I206
I135
I150
tp2118
a(I280
I0
I286
I328
tp2119
a(I280
I0
I286
I332
tp2120
a(I272
I0
I294
I332
tp2121
a(I271
I0
I172
I238
tp2122
a(I271
I0
I295
I332
tp2123
a(I270
I0
I296
I332
tp2124
a(I506
I206
I137
I150
tp2125
a(I535
I429
I73
I179
tp2126
a(I530
I449
I113
I153
tp2127
a(I342
I449
I301
I526
tp2128
a(I526
I414
I117
I194
tp2129
a(I0
I0
I256
I975
tp2130
a(I213
I241
I181
I258
tp2131
a(I250
I0
I186
I239
tp2132
a(I516
I414
I127
I194
tp2133
a(I479
I414
I164
I277
tp2134
a(I213
I241
I190
I262
tp2135
a(I181
I209
I222
I294
tp2136
a(I167
I393
I238
I582
tp2137
a(I167
I392
I238
I583
tp2138
a(I250
I0
I186
I250
tp2139
a(I181
I42
I222
I461
tp2140
a(I181
I34
I222
I469
tp2141
a(I398
I469
I68
I121
tp2142
a(I342
I422
I301
I553
tp2143
a(I398
I469
I69
I121
tp2144
a(I205
I233
I438
I742
tp2145
a(I342
I376
I301
I599
tp2146
a(I342
I375
I301
I600
tp2147
a(I181
I34
I334
I657
tp2148
a(I181
I34
I334
I664
tp2149
a(I506
I206
I137
I161
tp2150
a(I506
I206
I137
I171
tp2151
a(I256
I282
I150
I172
tp2152
a(I307
I244
I64
I97
tp2153
a(I398
I469
I76
I121
tp2154
a(I441
I0
I202
I336
tp2155
a(I248
I282
I158
I172
tp2156
a(I181
I34
I336
I664
tp2157
a(I426
I746
I71
I61
tp2158
a(I248
I0
I188
I250
tp2159
a(I186
I240
I59
I248
tp2160
a(I186
I240
I71
I274
tp2161
a(I289
I217
I106
I122
tp2162
a(I0
I0
I517
I975
tp2163
a(I0
I0
I643
I975
tp2164
a(I441
I0
I202
I377
tp2165
a(I479
I414
I164
I284
tp2166
a(I250
I675
I82
I67
tp2167
a(I392
I414
I251
I284
tp2168
a(I289
I217
I106
I130
tp2169
a(I398
I469
I81
I121
tp2170
a(I392
I414
I251
I286
tp2171
a(I204
I233
I439
I742
tp2172
a(I248
I675
I84
I108
tp2173
a(I392
I414
I251
I324
tp2174
a(I194
I233
I449
I742
tp2175
a(I248
I0
I188
I270
tp2176
a(I392
I407
I251
I331
tp2177
a(I248
I217
I158
I237
tp2178
a(I230
I41
I176
I413
tp2179
a(I194
I41
I449
I934
tp2180
a(I248
I675
I84
I124
tp2181
a(I307
I241
I64
I100
tp2182
a(I167
I392
I256
I583
tp2183
a(I270
I0
I296
I337
tp2184
a(I441
I0
I202
I389
tp2185
a(I307
I241
I70
I100
tp2186
a(I426
I746
I71
I64
tp2187
a(I182
I845
I76
I121
tp2188
asS'crop001018.png'
p2189
(lp2190
(I0
I0
I296
I975
tp2191
a(I169
I593
I54
I233
tp2192
a(I272
I0
I207
I132
tp2193
a(I270
I61
I84
I140
tp2194
a(I258
I0
I353
I317
tp2195
a(I445
I60
I137
I227
tp2196
a(I368
I557
I171
I418
tp2197
a(I434
I200
I264
I537
tp2198
a(I537
I0
I161
I373
tp2199
a(I628
I287
I70
I110
tp2200
a(I302
I433
I235
I298
tp2201
a(I531
I420
I60
I70
tp2202
a(I641
I441
I57
I72
tp2203
a(I577
I512
I73
I94
tp2204
a(I397
I128
I160
I230
tp2205
a(I512
I538
I183
I399
tp2206
a(I363
I909
I60
I66
tp2207
a(I416
I191
I122
I271
tp2208
a(I341
I197
I77
I104
tp2209
a(I292
I305
I120
I171
tp2210
a(I336
I201
I78
I132
tp2211
a(I217
I314
I84
I156
tp2212
a(I197
I329
I261
I593
tp2213
a(I437
I431
I65
I106
tp2214
a(I496
I583
I202
I392
tp2215
a(I220
I625
I174
I350
tp2216
a(I281
I813
I67
I74
tp2217
a(I544
I512
I106
I121
tp2218
a(I260
I49
I77
I95
tp2219
a(I544
I503
I106
I130
tp2220
a(I301
I95
I118
I104
tp2221
a(I169
I593
I54
I237
tp2222
a(I299
I95
I120
I104
tp2223
a(I260
I49
I77
I99
tp2224
a(I544
I441
I154
I192
tp2225
a(I363
I896
I70
I79
tp2226
a(I237
I67
I78
I221
tp2227
a(I237
I61
I117
I227
tp2228
a(I259
I0
I352
I428
tp2229
a(I237
I0
I242
I288
tp2230
a(I525
I441
I173
I192
tp2231
a(I299
I94
I120
I105
tp2232
a(I368
I557
I174
I418
tp2233
a(I258
I0
I353
I462
tp2234
a(I258
I0
I354
I462
tp2235
a(I258
I0
I354
I463
tp2236
a(I628
I287
I70
I111
tp2237
a(I413
I327
I89
I210
tp2238
a(I169
I584
I54
I246
tp2239
a(I392
I302
I110
I235
tp2240
a(I169
I584
I54
I254
tp2241
a(I368
I200
I330
I775
tp2242
a(I259
I0
I352
I537
tp2243
a(I526
I581
I163
I126
tp2244
a(I537
I0
I161
I398
tp2245
a(I236
I0
I243
I319
tp2246
a(I530
I418
I61
I72
tp2247
a(I336
I201
I86
I187
tp2248
a(I293
I433
I244
I327
tp2249
a(I0
I0
I325
I975
tp2250
a(I521
I581
I168
I126
tp2251
a(I355
I896
I78
I79
tp2252
a(I532
I0
I166
I398
tp2253
a(I0
I0
I479
I975
tp2254
a(I0
I0
I537
I975
tp2255
a(I0
I0
I698
I975
tp2256
a(I206
I537
I188
I438
tp2257
a(I184
I329
I274
I598
tp2258
a(I275
I813
I73
I74
tp2259
a(I183
I329
I275
I598
tp2260
a(I521
I581
I168
I142
tp2261
a(I493
I538
I202
I430
tp2262
a(I493
I538
I202
I435
tp2263
a(I259
I0
I353
I537
tp2264
a(I259
I0
I354
I537
tp2265
a(I493
I538
I205
I437
tp2266
a(I352
I896
I81
I79
tp2267
a(I352
I200
I346
I775
tp2268
a(I289
I304
I123
I172
tp2269
a(I251
I0
I362
I537
tp2270
a(I532
I0
I166
I409
tp2271
a(I521
I581
I168
I146
tp2272
a(I521
I581
I169
I146
tp2273
a(I183
I200
I515
I775
tp2274
a(I289
I304
I128
I172
tp2275
a(I289
I304
I132
I172
tp2276
a(I397
I0
I301
I409
tp2277
a(I184
I654
I63
I170
tp2278
a(I289
I201
I132
I275
tp2279
a(I251
I0
I362
I587
tp2280
a(I261
I20
I53
I118
tp2281
a(I443
I0
I184
I321
tp2282
a(I289
I200
I132
I276
tp2283
a(I289
I200
I132
I278
tp2284
a(I289
I200
I135
I278
tp2285
a(I251
I0
I376
I587
tp2286
a(I289
I200
I224
I282
tp2287
asS'crop001009.png'
p2288
(lp2289
(I0
I0
I477
I282
tp2290
a(I0
I193
I208
I131
tp2291
a(I218
I189
I64
I64
tp2292
a(I369
I229
I108
I101
tp2293
a(I0
I193
I113
I103
tp2294
a(I0
I278
I400
I264
tp2295
a(I266
I303
I133
I101
tp2296
a(I264
I327
I213
I107
tp2297
a(I265
I341
I131
I80
tp2298
a(I0
I330
I477
I241
tp2299
a(I0
I439
I283
I130
tp2300
a(I0
I333
I477
I293
tp2301
a(I32
I141
I161
I135
tp2302
a(I0
I329
I477
I242
tp2303
a(I32
I141
I161
I138
tp2304
a(I0
I329
I477
I297
tp2305
a(I0
I193
I113
I115
tp2306
a(I71
I457
I147
I64
tp2307
a(I0
I156
I69
I102
tp2308
a(I218
I166
I64
I87
tp2309
a(I43
I202
I242
I84
tp2310
a(I32
I141
I253
I145
tp2311
a(I0
I141
I285
I145
tp2312
a(I0
I141
I384
I159
tp2313
a(I0
I141
I477
I189
tp2314
a(I0
I327
I477
I299
tp2315
a(I0
I193
I208
I135
tp2316
a(I0
I401
I283
I168
tp2317
a(I0
I0
I477
I287
tp2318
a(I0
I141
I477
I401
tp2319
a(I0
I0
I477
I288
tp2320
a(I71
I457
I161
I64
tp2321
a(I0
I341
I396
I228
tp2322
a(I71
I441
I196
I80
tp2323
a(I0
I141
I477
I428
tp2324
a(I0
I131
I477
I438
tp2325
a(I0
I319
I477
I307
tp2326
a(I0
I0
I477
I569
tp2327
a(I0
I0
I477
I626
tp2328
asS'crop001013.png'
p2329
(lp2330
(I0
I0
I739
I484
tp2331
a(I450
I97
I289
I354
tp2332
a(I607
I190
I89
I80
tp2333
a(I499
I293
I120
I154
tp2334
a(I427
I146
I117
I124
tp2335
a(I350
I199
I61
I89
tp2336
a(I258
I256
I132
I145
tp2337
a(I330
I319
I145
I132
tp2338
a(I350
I311
I93
I115
tp2339
a(I187
I295
I116
I109
tp2340
a(I331
I428
I267
I328
tp2341
a(I309
I385
I68
I100
tp2342
a(I202
I433
I125
I238
tp2343
a(I308
I437
I243
I403
tp2344
a(I0
I471
I240
I387
tp2345
a(I119
I560
I106
I121
tp2346
a(I127
I638
I94
I72
tp2347
a(I0
I700
I470
I178
tp2348
a(I391
I258
I50
I59
tp2349
a(I188
I282
I78
I113
tp2350
a(I488
I329
I127
I123
tp2351
a(I468
I358
I271
I306
tp2352
a(I651
I343
I88
I96
tp2353
a(I633
I523
I69
I76
tp2354
a(I551
I618
I143
I158
tp2355
a(I544
I667
I146
I108
tp2356
a(I227
I370
I98
I54
tp2357
a(I319
I408
I52
I74
tp2358
a(I120
I425
I196
I63
tp2359
a(I631
I532
I71
I69
tp2360
a(I475
I554
I264
I421
tp2361
a(I248
I637
I65
I65
tp2362
a(I190
I575
I71
I117
tp2363
a(I167
I683
I148
I104
tp2364
a(I336
I599
I111
I100
tp2365
a(I342
I668
I140
I156
tp2366
a(I132
I762
I244
I119
tp2367
a(I411
I835
I64
I133
tp2368
a(I58
I776
I382
I199
tp2369
a(I0
I792
I198
I183
tp2370
a(I0
I913
I74
I60
tp2371
a(I359
I873
I81
I102
tp2372
a(I209
I923
I90
I52
tp2373
a(I475
I801
I125
I139
tp2374
a(I421
I805
I197
I142
tp2375
a(I473
I779
I152
I87
tp2376
a(I58
I668
I424
I307
tp2377
a(I142
I650
I87
I70
tp2378
a(I58
I428
I540
I547
tp2379
a(I227
I370
I98
I56
tp2380
a(I142
I650
I173
I137
tp2381
a(I523
I667
I167
I134
tp2382
a(I132
I762
I308
I213
tp2383
a(I132
I762
I343
I213
tp2384
a(I468
I343
I271
I321
tp2385
a(I56
I428
I542
I547
tp2386
a(I119
I560
I142
I132
tp2387
a(I86
I560
I175
I149
tp2388
a(I499
I293
I148
I154
tp2389
a(I243
I637
I70
I73
tp2390
a(I142
I637
I173
I150
tp2391
a(I0
I428
I598
I547
tp2392
a(I0
I232
I424
I259
tp2393
a(I499
I293
I223
I156
tp2394
a(I0
I901
I56
I61
tp2395
a(I607
I190
I89
I90
tp2396
a(I0
I778
I198
I197
tp2397
a(I319
I408
I75
I74
tp2398
a(I497
I667
I193
I134
tp2399
a(I451
I151
I108
I148
tp2400
a(I421
I554
I318
I421
tp2401
a(I86
I560
I229
I227
tp2402
a(I0
I428
I601
I547
tp2403
a(I367
I258
I74
I59
tp2404
a(I631
I520
I108
I81
tp2405
a(I0
I343
I739
I632
tp2406
a(I598
I190
I98
I90
tp2407
a(I615
I523
I87
I76
tp2408
a(I427
I146
I126
I127
tp2409
a(I450
I97
I289
I355
tp2410
a(I587
I190
I109
I126
tp2411
a(I499
I190
I223
I259
tp2412
a(I9
I804
I136
I71
tp2413
a(I9
I800
I136
I75
tp2414
a(I348
I125
I280
I143
tp2415
a(I450
I97
I289
I395
tp2416
a(I451
I104
I212
I195
tp2417
a(I9
I798
I136
I77
tp2418
a(I178
I322
I147
I104
tp2419
a(I178
I318
I147
I108
tp2420
a(I0
I554
I739
I421
tp2421
a(I499
I190
I231
I259
tp2422
a(I178
I318
I216
I164
tp2423
a(I348
I125
I280
I146
tp2424
a(I341
I496
I52
I62
tp2425
a(I427
I109
I225
I164
tp2426
a(I551
I618
I143
I186
tp2427
a(I0
I437
I739
I538
tp2428
a(I0
I97
I739
I878
tp2429
a(I118
I425
I198
I63
tp2430
a(I427
I109
I225
I172
tp2431
a(I499
I188
I231
I261
tp2432
a(I9
I798
I136
I86
tp2433
a(I9
I798
I136
I96
tp2434
a(I9
I795
I136
I99
tp2435
a(I477
I883
I68
I52
tp2436
a(I491
I188
I239
I261
tp2437
a(I450
I188
I280
I261
tp2438
a(I426
I109
I226
I172
tp2439
a(I441
I104
I222
I195
tp2440
a(I664
I97
I67
I64
tp2441
a(I258
I256
I217
I195
tp2442
a(I510
I669
I183
I213
tp2443
a(I0
I471
I286
I387
tp2444
a(I0
I256
I739
I719
tp2445
a(I177
I255
I184
I169
tp2446
a(I438
I104
I225
I195
tp2447
a(I8
I795
I137
I99
tp2448
a(I178
I311
I265
I171
tp2449
a(I178
I292
I271
I190
tp2450
a(I178
I258
I271
I224
tp2451
a(I438
I104
I292
I345
tp2452
a(I438
I104
I301
I345
tp2453
a(I438
I104
I301
I346
tp2454
a(I438
I104
I301
I347
tp2455
a(I0
I109
I739
I866
tp2456
a(I0
I433
I304
I106
tp2457
a(I181
I282
I85
I113
tp2458
a(I187
I295
I116
I110
tp2459
a(I0
I104
I739
I871
tp2460
a(I0
I0
I739
I571
tp2461
a(I433
I484
I94
I153
tp2462
a(I345
I309
I86
I117
tp2463
a(I345
I309
I87
I118
tp2464
a(I345
I309
I101
I118
tp2465
a(I118
I425
I199
I63
tp2466
a(I181
I282
I104
I125
tp2467
a(I647
I96
I84
I65
tp2468
a(I178
I258
I316
I224
tp2469
a(I0
I433
I307
I106
tp2470
a(I0
I96
I739
I879
tp2471
a(I0
I88
I739
I887
tp2472
a(I336
I199
I75
I89
tp2473
a(I0
I0
I739
I975
tp2474
asS'crop001011.png'
p2475
(lp2476
(I5
I0
I190
I154
tp2477
a(I13
I0
I451
I205
tp2478
a(I367
I4
I117
I185
tp2479
a(I368
I0
I126
I196
tp2480
a(I362
I0
I255
I417
tp2481
a(I306
I193
I155
I162
tp2482
a(I547
I207
I120
I195
tp2483
a(I345
I256
I92
I240
tp2484
a(I431
I374
I123
I175
tp2485
a(I496
I455
I67
I90
tp2486
a(I492
I0
I64
I68
tp2487
a(I558
I76
I142
I158
tp2488
a(I515
I0
I429
I341
tp2489
a(I902
I87
I66
I141
tp2490
a(I876
I0
I247
I529
tp2491
a(I966
I0
I157
I318
tp2492
a(I999
I254
I66
I95
tp2493
a(I1063
I260
I57
I99
tp2494
a(I1050
I334
I73
I68
tp2495
a(I784
I18
I158
I126
tp2496
a(I797
I114
I73
I67
tp2497
a(I830
I0
I137
I124
tp2498
a(I876
I0
I80
I55
tp2499
a(I776
I34
I51
I68
tp2500
a(I20
I54
I163
I114
tp2501
a(I67
I64
I118
I143
tp2502
a(I188
I98
I90
I124
tp2503
a(I140
I105
I173
I205
tp2504
a(I0
I128
I99
I91
tp2505
a(I0
I179
I212
I149
tp2506
a(I0
I199
I145
I116
tp2507
a(I225
I222
I87
I66
tp2508
a(I113
I283
I76
I79
tp2509
a(I218
I240
I94
I90
tp2510
a(I198
I103
I68
I104
tp2511
a(I796
I134
I72
I119
tp2512
a(I811
I135
I98
I104
tp2513
a(I1006
I205
I67
I89
tp2514
a(I1009
I204
I51
I71
tp2515
a(I870
I226
I73
I77
tp2516
a(I751
I227
I171
I284
tp2517
a(I572
I236
I183
I213
tp2518
a(I365
I367
I385
I398
tp2519
a(I283
I263
I70
I196
tp2520
a(I0
I275
I61
I87
tp2521
a(I211
I288
I220
I216
tp2522
a(I847
I481
I259
I56
tp2523
a(I0
I362
I1123
I463
tp2524
a(I569
I314
I142
I58
tp2525
a(I383
I409
I54
I100
tp2526
a(I999
I254
I121
I105
tp2527
a(I999
I251
I124
I108
tp2528
a(I1003
I205
I70
I89
tp2529
a(I811
I135
I121
I104
tp2530
a(I811
I135
I131
I104
tp2531
a(I1033
I183
I78
I97
tp2532
a(I1003
I183
I108
I111
tp2533
a(I1003
I183
I120
I111
tp2534
a(I998
I183
I125
I113
tp2535
a(I1051
I370
I72
I70
tp2536
a(I811
I135
I143
I104
tp2537
a(I0
I0
I183
I168
tp2538
a(I0
I192
I145
I123
tp2539
a(I998
I183
I125
I176
tp2540
a(I998
I183
I125
I181
tp2541
a(I4
I275
I79
I65
tp2542
a(I811
I135
I172
I120
tp2543
a(I811
I135
I172
I130
tp2544
a(I998
I166
I125
I198
tp2545
a(I67
I64
I120
I143
tp2546
a(I826
I0
I141
I124
tp2547
a(I998
I159
I125
I205
tp2548
a(I998
I149
I125
I215
tp2549
a(I492
I0
I75
I68
tp2550
a(I998
I138
I125
I226
tp2551
a(I989
I138
I134
I226
tp2552
a(I5
I0
I190
I167
tp2553
a(I367
I0
I117
I189
tp2554
a(I989
I138
I134
I251
tp2555
a(I492
I0
I79
I68
tp2556
a(I0
I0
I195
I168
tp2557
a(I367
I0
I127
I196
tp2558
a(I515
I0
I429
I370
tp2559
a(I497
I0
I447
I370
tp2560
a(I951
I0
I172
I343
tp2561
a(I0
I192
I145
I148
tp2562
a(I140
I105
I173
I254
tp2563
a(I487
I0
I84
I68
tp2564
a(I113
I281
I76
I81
tp2565
a(I497
I0
I464
I370
tp2566
a(I496
I455
I67
I91
tp2567
a(I181
I98
I97
I124
tp2568
a(I951
I0
I172
I389
tp2569
a(I811
I0
I312
I389
tp2570
a(I497
I0
I626
I389
tp2571
a(I189
I76
I77
I131
tp2572
a(I487
I0
I84
I89
tp2573
a(I0
I192
I153
I148
tp2574
a(I0
I64
I187
I276
tp2575
a(I902
I87
I81
I155
tp2576
a(I487
I0
I636
I389
tp2577
a(I847
I481
I259
I64
tp2578
a(I13
I0
I451
I206
tp2579
a(I0
I0
I1123
I825
tp2580
a(I0
I179
I212
I151
tp2581
a(I365
I367
I385
I401
tp2582
a(I365
I345
I385
I423
tp2583
a(I521
I272
I63
I167
tp2584
a(I0
I0
I195
I176
tp2585
a(I431
I272
I153
I277
tp2586
a(I0
I179
I234
I151
tp2587
a(I547
I207
I120
I232
tp2588
a(I902
I569
I72
I64
tp2589
a(I569
I314
I142
I65
tp2590
a(I547
I207
I159
I232
tp2591
a(I141
I98
I137
I124
tp2592
a(I0
I104
I251
I226
tp2593
a(I365
I620
I113
I79
tp2594
a(I365
I618
I138
I81
tp2595
a(I0
I104
I251
I258
tp2596
a(I0
I76
I266
I286
tp2597
a(I0
I64
I189
I276
tp2598
a(I211
I193
I250
I311
tp2599
a(I365
I345
I385
I431
tp2600
a(I572
I227
I350
I284
tp2601
a(I225
I222
I128
I237
tp2602
a(I796
I134
I149
I159
tp2603
a(I13
I0
I481
I206
tp2604
a(I0
I0
I494
I206
tp2605
a(I140
I105
I173
I265
tp2606
a(I796
I111
I149
I182
tp2607
a(I113
I281
I78
I82
tp2608
a(I107
I281
I84
I82
tp2609
a(I236
I275
I51
I64
tp2610
a(I570
I227
I352
I284
tp2611
a(I902
I562
I72
I71
tp2612
a(I191
I193
I270
I317
tp2613
a(I541
I207
I165
I232
tp2614
a(I337
I256
I67
I75
tp2615
a(I831
I229
I93
I307
tp2616
a(I796
I111
I149
I425
tp2617
a(I140
I98
I173
I272
tp2618
a(I797
I114
I74
I69
tp2619
a(I541
I207
I169
I232
tp2620
a(I538
I207
I172
I232
tp2621
a(I522
I207
I188
I232
tp2622
a(I794
I111
I151
I425
tp2623
a(I345
I256
I405
I520
tp2624
a(I225
I222
I525
I554
tp2625
a(I341
I409
I96
I100
tp2626
a(I140
I98
I173
I386
tp2627
a(I140
I98
I173
I407
tp2628
a(I794
I111
I170
I425
tp2629
a(I140
I98
I173
I418
tp2630
a(I0
I0
I494
I211
tp2631
a(I308
I172
I58
I51
tp2632
a(I140
I98
I175
I418
tp2633
a(I393
I628
I90
I84
tp2634
a(I466
I480
I77
I111
tp2635
a(I466
I480
I87
I111
tp2636
a(I466
I480
I97
I111
tp2637
a(I505
I207
I205
I232
tp2638
a(I225
I222
I697
I554
tp2639
a(I225
I222
I697
I558
tp2640
a(I140
I98
I782
I682
tp2641
a(I215
I275
I72
I133
tp2642
a(I505
I202
I205
I237
tp2643
a(I139
I98
I783
I682
tp2644
a(I0
I128
I107
I91
tp2645
a(I393
I628
I119
I86
tp2646
a(I380
I507
I65
I59
tp2647
a(I797
I114
I74
I70
tp2648
a(I0
I127
I107
I92
tp2649
a(I0
I0
I494
I216
tp2650
asS'crop001010.png'
p2651
(lp2652
(I0
I0
I588
I602
tp2653
a(I134
I268
I63
I61
tp2654
a(I310
I217
I64
I65
tp2655
a(I225
I260
I168
I196
tp2656
a(I231
I286
I79
I68
tp2657
a(I0
I317
I142
I98
tp2658
a(I106
I375
I112
I96
tp2659
a(I407
I341
I56
I58
tp2660
a(I0
I377
I588
I437
tp2661
a(I0
I423
I207
I160
tp2662
a(I30
I423
I120
I88
tp2663
a(I399
I442
I180
I74
tp2664
a(I6
I487
I183
I206
tp2665
a(I0
I488
I514
I363
tp2666
a(I186
I655
I358
I196
tp2667
a(I55
I494
I144
I176
tp2668
a(I371
I540
I217
I107
tp2669
a(I239
I634
I90
I54
tp2670
a(I325
I682
I263
I169
tp2671
a(I400
I705
I73
I51
tp2672
a(I461
I754
I127
I83
tp2673
a(I385
I642
I203
I111
tp2674
a(I376
I633
I116
I60
tp2675
a(I399
I430
I189
I86
tp2676
a(I91
I375
I127
I96
tp2677
a(I134
I268
I75
I82
tp2678
a(I0
I484
I189
I209
tp2679
a(I0
I484
I245
I234
tp2680
a(I325
I633
I263
I218
tp2681
a(I0
I0
I588
I814
tp2682
a(I0
I479
I245
I239
tp2683
a(I0
I385
I214
I198
tp2684
a(I371
I540
I217
I213
tp2685
a(I0
I312
I218
I128
tp2686
a(I186
I639
I358
I212
tp2687
a(I225
I260
I170
I196
tp2688
a(I0
I317
I214
I266
tp2689
a(I0
I488
I588
I363
tp2690
a(I371
I540
I217
I275
tp2691
a(I231
I285
I85
I69
tp2692
a(I231
I285
I85
I70
tp2693
a(I399
I406
I189
I110
tp2694
a(I450
I345
I91
I90
tp2695
a(I413
I345
I128
I90
tp2696
a(I301
I633
I287
I218
tp2697
a(I191
I634
I138
I88
tp2698
a(I55
I494
I274
I228
tp2699
a(I301
I540
I287
I311
tp2700
a(I55
I494
I533
I357
tp2701
a(I0
I312
I219
I128
tp2702
a(I186
I639
I380
I212
tp2703
a(I0
I406
I588
I445
tp2704
a(I310
I217
I77
I67
tp2705
a(I91
I361
I139
I110
tp2706
a(I407
I342
I134
I93
tp2707
a(I269
I658
I287
I193
tp2708
a(I221
I289
I56
I123
tp2709
a(I91
I289
I186
I182
tp2710
a(I91
I285
I225
I186
tp2711
a(I273
I399
I82
I60
tp2712
a(I241
I653
I315
I198
tp2713
a(I241
I647
I315
I204
tp2714
a(I273
I399
I109
I60
tp2715
a(I308
I217
I79
I67
tp2716
a(I223
I260
I172
I196
tp2717
a(I186
I636
I380
I215
tp2718
a(I0
I0
I588
I851
tp2719
a(I353
I286
I50
I85
tp2720
a(I223
I257
I172
I199
tp2721
a(I223
I257
I172
I202
tp2722
a(I153
I588
I413
I263
tp2723
a(I349
I286
I54
I98
tp2724
a(I331
I286
I72
I106
tp2725
a(I223
I257
I180
I202
tp2726
asS'crop001014.png'
p2727
(lp2728
(I4
I0
I65
I53
tp2729
a(I0
I0
I844
I975
tp2730
a(I391
I617
I89
I107
tp2731
a(I487
I614
I56
I80
tp2732
a(I511
I27
I58
I83
tp2733
a(I452
I130
I87
I118
tp2734
a(I522
I250
I53
I54
tp2735
a(I436
I311
I57
I69
tp2736
a(I308
I320
I106
I120
tp2737
a(I314
I324
I146
I147
tp2738
a(I269
I441
I234
I254
tp2739
a(I389
I334
I81
I123
tp2740
a(I620
I458
I65
I93
tp2741
a(I264
I491
I103
I186
tp2742
a(I378
I665
I71
I58
tp2743
a(I427
I609
I60
I77
tp2744
a(I482
I614
I61
I63
tp2745
a(I354
I617
I126
I109
tp2746
a(I255
I473
I191
I250
tp2747
a(I255
I473
I291
I252
tp2748
a(I386
I334
I84
I123
tp2749
a(I378
I609
I109
I114
tp2750
a(I306
I320
I108
I134
tp2751
a(I481
I614
I62
I81
tp2752
a(I371
I609
I116
I114
tp2753
a(I354
I617
I171
I109
tp2754
a(I306
I316
I144
I138
tp2755
a(I352
I334
I118
I123
tp2756
a(I419
I311
I74
I69
tp2757
a(I450
I129
I147
I177
tp2758
a(I0
I0
I69
I55
tp2759
a(I269
I324
I234
I371
tp2760
a(I269
I323
I234
I372
tp2761
a(I511
I21
I59
I95
tp2762
a(I511
I21
I68
I95
tp2763
a(I371
I609
I135
I114
tp2764
a(I371
I609
I172
I114
tp2765
a(I447
I128
I113
I170
tp2766
a(I447
I128
I128
I176
tp2767
a(I255
I473
I291
I253
tp2768
a(I255
I456
I291
I270
tp2769
a(I255
I455
I291
I271
tp2770
a(I447
I128
I148
I176
tp2771
a(I442
I614
I101
I81
tp2772
a(I306
I316
I144
I169
tp2773
a(I269
I311
I234
I384
tp2774
a(I447
I128
I150
I178
tp2775
a(I571
I359
I54
I81
tp2776
a(I255
I455
I293
I271
tp2777
a(I306
I316
I164
I169
tp2778
a(I509
I21
I71
I95
tp2779
a(I616
I456
I91
I132
tp2780
a(I264
I491
I103
I210
tp2781
a(I306
I316
I177
I290
tp2782
a(I264
I491
I103
I219
tp2783
a(I264
I316
I219
I345
tp2784
a(I264
I316
I241
I353
tp2785
a(I264
I316
I279
I407
tp2786
a(I254
I455
I294
I271
tp2787
a(I264
I311
I279
I412
tp2788
as.